
a.out:     file format pei-x86-64


Disassembly of section .text:

0000000140001000 <__mingw_invalidParameterHandler>:
   140001000:	55                   	push   %rbp
   140001001:	48 89 e5             	mov    %rsp,%rbp
   140001004:	48 89 4d 10          	mov    %rcx,0x10(%rbp)
   140001008:	48 89 55 18          	mov    %rdx,0x18(%rbp)
   14000100c:	4c 89 45 20          	mov    %r8,0x20(%rbp)
   140001010:	44 89 4d 28          	mov    %r9d,0x28(%rbp)
   140001014:	90                   	nop
   140001015:	5d                   	pop    %rbp
   140001016:	c3                   	ret    

0000000140001017 <pre_c_init>:
   140001017:	55                   	push   %rbp
   140001018:	48 89 e5             	mov    %rsp,%rbp
   14000101b:	48 83 ec 20          	sub    $0x20,%rsp
   14000101f:	e8 5c 04 00 00       	call   140001480 <check_managed_app>
   140001024:	89 05 f6 ef 00 00    	mov    %eax,0xeff6(%rip)        # 140010020 <managedapp>
   14000102a:	48 8b 05 6f a8 00 00 	mov    0xa86f(%rip),%rax        # 14000b8a0 <.refptr.mingw_app_type>
   140001031:	8b 00                	mov    (%rax),%eax
   140001033:	85 c0                	test   %eax,%eax
   140001035:	74 0c                	je     140001043 <pre_c_init+0x2c>
   140001037:	b9 02 00 00 00       	mov    $0x2,%ecx
   14000103c:	e8 b7 77 00 00       	call   1400087f8 <__set_app_type>
   140001041:	eb 0a                	jmp    14000104d <pre_c_init+0x36>
   140001043:	b9 01 00 00 00       	mov    $0x1,%ecx
   140001048:	e8 ab 77 00 00       	call   1400087f8 <__set_app_type>
   14000104d:	e8 0e 80 00 00       	call   140009060 <__p__fmode>
   140001052:	48 8b 15 07 a8 00 00 	mov    0xa807(%rip),%rdx        # 14000b860 <.refptr._fmode>
   140001059:	8b 12                	mov    (%rdx),%edx
   14000105b:	89 10                	mov    %edx,(%rax)
   14000105d:	e8 ee 7f 00 00       	call   140009050 <__p__commode>
   140001062:	48 8b 15 d7 a7 00 00 	mov    0xa7d7(%rip),%rdx        # 14000b840 <.refptr._commode>
   140001069:	8b 12                	mov    (%rdx),%edx
   14000106b:	89 10                	mov    %edx,(%rax)
   14000106d:	e8 9e 0a 00 00       	call   140001b10 <_setargv>
   140001072:	48 8b 05 87 a6 00 00 	mov    0xa687(%rip),%rax        # 14000b700 <.refptr._MINGW_INSTALL_DEBUG_MATHERR>
   140001079:	8b 00                	mov    (%rax),%eax
   14000107b:	83 f8 01             	cmp    $0x1,%eax
   14000107e:	75 0f                	jne    14000108f <pre_c_init+0x78>
   140001080:	48 8b 05 f9 a7 00 00 	mov    0xa7f9(%rip),%rax        # 14000b880 <.refptr._matherr>
   140001087:	48 89 c1             	mov    %rax,%rcx
   14000108a:	e8 4b 15 00 00       	call   1400025da <__mingw_setusermatherr>
   14000108f:	b8 00 00 00 00       	mov    $0x0,%eax
   140001094:	48 83 c4 20          	add    $0x20,%rsp
   140001098:	5d                   	pop    %rbp
   140001099:	c3                   	ret    

000000014000109a <pre_cpp_init>:
   14000109a:	55                   	push   %rbp
   14000109b:	48 89 e5             	mov    %rsp,%rbp
   14000109e:	48 83 ec 30          	sub    $0x30,%rsp
   1400010a2:	48 8b 05 e7 a7 00 00 	mov    0xa7e7(%rip),%rax        # 14000b890 <.refptr._newmode>
   1400010a9:	8b 00                	mov    (%rax),%eax
   1400010ab:	89 05 77 ef 00 00    	mov    %eax,0xef77(%rip)        # 140010028 <startinfo>
   1400010b1:	48 8b 05 98 a7 00 00 	mov    0xa798(%rip),%rax        # 14000b850 <.refptr._dowildcard>
   1400010b8:	8b 10                	mov    (%rax),%edx
   1400010ba:	48 8d 05 67 ef 00 00 	lea    0xef67(%rip),%rax        # 140010028 <startinfo>
   1400010c1:	48 89 44 24 20       	mov    %rax,0x20(%rsp)
   1400010c6:	41 89 d1             	mov    %edx,%r9d
   1400010c9:	4c 8d 05 40 ef 00 00 	lea    0xef40(%rip),%r8        # 140010010 <envp>
   1400010d0:	48 8d 05 31 ef 00 00 	lea    0xef31(%rip),%rax        # 140010008 <argv>
   1400010d7:	48 89 c2             	mov    %rax,%rdx
   1400010da:	48 8d 05 23 ef 00 00 	lea    0xef23(%rip),%rax        # 140010004 <argc>
   1400010e1:	48 89 c1             	mov    %rax,%rcx
   1400010e4:	e8 1f 77 00 00       	call   140008808 <__getmainargs>
   1400010e9:	89 05 29 ef 00 00    	mov    %eax,0xef29(%rip)        # 140010018 <argret>
   1400010ef:	90                   	nop
   1400010f0:	48 83 c4 30          	add    $0x30,%rsp
   1400010f4:	5d                   	pop    %rbp
   1400010f5:	c3                   	ret    

00000001400010f6 <WinMainCRTStartup>:
   1400010f6:	55                   	push   %rbp
   1400010f7:	48 89 e5             	mov    %rsp,%rbp
   1400010fa:	48 83 ec 30          	sub    $0x30,%rsp
   1400010fe:	c7 45 fc ff 00 00 00 	movl   $0xff,-0x4(%rbp)

0000000140001105 <.l_startw>:
   140001105:	48 8b 05 94 a7 00 00 	mov    0xa794(%rip),%rax        # 14000b8a0 <.refptr.mingw_app_type>
   14000110c:	c7 00 01 00 00 00    	movl   $0x1,(%rax)
   140001112:	e8 3d 00 00 00       	call   140001154 <__tmainCRTStartup>
   140001117:	89 45 fc             	mov    %eax,-0x4(%rbp)
   14000111a:	90                   	nop

000000014000111b <.l_endw>:
   14000111b:	90                   	nop
   14000111c:	8b 45 fc             	mov    -0x4(%rbp),%eax
   14000111f:	48 83 c4 30          	add    $0x30,%rsp
   140001123:	5d                   	pop    %rbp
   140001124:	c3                   	ret    

0000000140001125 <mainCRTStartup>:
   140001125:	55                   	push   %rbp
   140001126:	48 89 e5             	mov    %rsp,%rbp
   140001129:	48 83 ec 30          	sub    $0x30,%rsp
   14000112d:	c7 45 fc ff 00 00 00 	movl   $0xff,-0x4(%rbp)

0000000140001134 <.l_start>:
   140001134:	48 8b 05 65 a7 00 00 	mov    0xa765(%rip),%rax        # 14000b8a0 <.refptr.mingw_app_type>
   14000113b:	c7 00 00 00 00 00    	movl   $0x0,(%rax)
   140001141:	e8 0e 00 00 00       	call   140001154 <__tmainCRTStartup>
   140001146:	89 45 fc             	mov    %eax,-0x4(%rbp)
   140001149:	90                   	nop

000000014000114a <.l_end>:
   14000114a:	90                   	nop
   14000114b:	8b 45 fc             	mov    -0x4(%rbp),%eax
   14000114e:	48 83 c4 30          	add    $0x30,%rsp
   140001152:	5d                   	pop    %rbp
   140001153:	c3                   	ret    

0000000140001154 <__tmainCRTStartup>:
   140001154:	55                   	push   %rbp
   140001155:	48 89 e5             	mov    %rsp,%rbp
   140001158:	48 81 ec e0 00 00 00 	sub    $0xe0,%rsp
   14000115f:	48 c7 45 f8 00 00 00 	movq   $0x0,-0x8(%rbp)
   140001166:	00 
   140001167:	c7 45 f4 00 00 00 00 	movl   $0x0,-0xc(%rbp)
   14000116e:	48 8d 85 40 ff ff ff 	lea    -0xc0(%rbp),%rax
   140001175:	41 b8 68 00 00 00    	mov    $0x68,%r8d
   14000117b:	ba 00 00 00 00       	mov    $0x0,%edx
   140001180:	48 89 c1             	mov    %rax,%rcx
   140001183:	e8 d8 75 00 00       	call   140008760 <memset>
   140001188:	48 8b 05 11 a7 00 00 	mov    0xa711(%rip),%rax        # 14000b8a0 <.refptr.mingw_app_type>
   14000118f:	8b 00                	mov    (%rax),%eax
   140001191:	85 c0                	test   %eax,%eax
   140001193:	74 13                	je     1400011a8 <__tmainCRTStartup+0x54>
   140001195:	48 8d 85 40 ff ff ff 	lea    -0xc0(%rbp),%rax
   14000119c:	48 89 c1             	mov    %rax,%rcx
   14000119f:	48 8b 05 ee 01 01 00 	mov    0x101ee(%rip),%rax        # 140011394 <__imp_GetStartupInfoA>
   1400011a6:	ff d0                	call   *%rax
   1400011a8:	48 c7 45 e8 00 00 00 	movq   $0x0,-0x18(%rbp)
   1400011af:	00 
   1400011b0:	c7 45 dc 30 00 00 00 	movl   $0x30,-0x24(%rbp)
   1400011b7:	8b 45 dc             	mov    -0x24(%rbp),%eax
   1400011ba:	65 48 8b 00          	mov    %gs:(%rax),%rax
   1400011be:	48 89 45 d0          	mov    %rax,-0x30(%rbp)
   1400011c2:	48 8b 45 d0          	mov    -0x30(%rbp),%rax
   1400011c6:	48 8b 40 08          	mov    0x8(%rax),%rax
   1400011ca:	48 89 45 e0          	mov    %rax,-0x20(%rbp)
   1400011ce:	c7 45 f0 00 00 00 00 	movl   $0x0,-0x10(%rbp)
   1400011d5:	eb 21                	jmp    1400011f8 <__tmainCRTStartup+0xa4>
   1400011d7:	48 8b 45 e8          	mov    -0x18(%rbp),%rax
   1400011db:	48 3b 45 e0          	cmp    -0x20(%rbp),%rax
   1400011df:	75 09                	jne    1400011ea <__tmainCRTStartup+0x96>
   1400011e1:	c7 45 f0 01 00 00 00 	movl   $0x1,-0x10(%rbp)
   1400011e8:	eb 45                	jmp    14000122f <__tmainCRTStartup+0xdb>
   1400011ea:	b9 e8 03 00 00       	mov    $0x3e8,%ecx
   1400011ef:	48 8b 05 d6 01 01 00 	mov    0x101d6(%rip),%rax        # 1400113cc <__imp_Sleep>
   1400011f6:	ff d0                	call   *%rax
   1400011f8:	48 8b 05 d1 a5 00 00 	mov    0xa5d1(%rip),%rax        # 14000b7d0 <.refptr.__native_startup_lock>
   1400011ff:	48 89 45 c8          	mov    %rax,-0x38(%rbp)
   140001203:	48 8b 45 e0          	mov    -0x20(%rbp),%rax
   140001207:	48 89 45 c0          	mov    %rax,-0x40(%rbp)
   14000120b:	48 c7 45 b8 00 00 00 	movq   $0x0,-0x48(%rbp)
   140001212:	00 
   140001213:	48 8b 4d c0          	mov    -0x40(%rbp),%rcx
   140001217:	48 8b 45 b8          	mov    -0x48(%rbp),%rax
   14000121b:	48 8b 55 c8          	mov    -0x38(%rbp),%rdx
   14000121f:	f0 48 0f b1 0a       	lock cmpxchg %rcx,(%rdx)
   140001224:	48 89 45 e8          	mov    %rax,-0x18(%rbp)
   140001228:	48 83 7d e8 00       	cmpq   $0x0,-0x18(%rbp)
   14000122d:	75 a8                	jne    1400011d7 <__tmainCRTStartup+0x83>
   14000122f:	48 8b 05 aa a5 00 00 	mov    0xa5aa(%rip),%rax        # 14000b7e0 <.refptr.__native_startup_state>
   140001236:	8b 00                	mov    (%rax),%eax
   140001238:	83 f8 01             	cmp    $0x1,%eax
   14000123b:	75 0c                	jne    140001249 <__tmainCRTStartup+0xf5>
   14000123d:	b9 1f 00 00 00       	mov    $0x1f,%ecx
   140001242:	e8 a1 75 00 00       	call   1400087e8 <_amsg_exit>
   140001247:	eb 3f                	jmp    140001288 <__tmainCRTStartup+0x134>
   140001249:	48 8b 05 90 a5 00 00 	mov    0xa590(%rip),%rax        # 14000b7e0 <.refptr.__native_startup_state>
   140001250:	8b 00                	mov    (%rax),%eax
   140001252:	85 c0                	test   %eax,%eax
   140001254:	75 28                	jne    14000127e <__tmainCRTStartup+0x12a>
   140001256:	48 8b 05 83 a5 00 00 	mov    0xa583(%rip),%rax        # 14000b7e0 <.refptr.__native_startup_state>
   14000125d:	c7 00 01 00 00 00    	movl   $0x1,(%rax)
   140001263:	48 8b 05 c6 a5 00 00 	mov    0xa5c6(%rip),%rax        # 14000b830 <.refptr.__xi_z>
   14000126a:	48 89 c2             	mov    %rax,%rdx
   14000126d:	48 8b 05 ac a5 00 00 	mov    0xa5ac(%rip),%rax        # 14000b820 <.refptr.__xi_a>
   140001274:	48 89 c1             	mov    %rax,%rcx
   140001277:	e8 54 75 00 00       	call   1400087d0 <_initterm>
   14000127c:	eb 0a                	jmp    140001288 <__tmainCRTStartup+0x134>
   14000127e:	c7 05 9c ed 00 00 01 	movl   $0x1,0xed9c(%rip)        # 140010024 <has_cctor>
   140001285:	00 00 00 
   140001288:	48 8b 05 51 a5 00 00 	mov    0xa551(%rip),%rax        # 14000b7e0 <.refptr.__native_startup_state>
   14000128f:	8b 00                	mov    (%rax),%eax
   140001291:	83 f8 01             	cmp    $0x1,%eax
   140001294:	75 26                	jne    1400012bc <__tmainCRTStartup+0x168>
   140001296:	48 8b 05 73 a5 00 00 	mov    0xa573(%rip),%rax        # 14000b810 <.refptr.__xc_z>
   14000129d:	48 89 c2             	mov    %rax,%rdx
   1400012a0:	48 8b 05 59 a5 00 00 	mov    0xa559(%rip),%rax        # 14000b800 <.refptr.__xc_a>
   1400012a7:	48 89 c1             	mov    %rax,%rcx
   1400012aa:	e8 21 75 00 00       	call   1400087d0 <_initterm>
   1400012af:	48 8b 05 2a a5 00 00 	mov    0xa52a(%rip),%rax        # 14000b7e0 <.refptr.__native_startup_state>
   1400012b6:	c7 00 02 00 00 00    	movl   $0x2,(%rax)
   1400012bc:	83 7d f0 00          	cmpl   $0x0,-0x10(%rbp)
   1400012c0:	75 1f                	jne    1400012e1 <__tmainCRTStartup+0x18d>
   1400012c2:	48 8b 05 07 a5 00 00 	mov    0xa507(%rip),%rax        # 14000b7d0 <.refptr.__native_startup_lock>
   1400012c9:	48 89 45 b0          	mov    %rax,-0x50(%rbp)
   1400012cd:	48 c7 45 a8 00 00 00 	movq   $0x0,-0x58(%rbp)
   1400012d4:	00 
   1400012d5:	48 8b 55 a8          	mov    -0x58(%rbp),%rdx
   1400012d9:	48 8b 45 b0          	mov    -0x50(%rbp),%rax
   1400012dd:	48 87 10             	xchg   %rdx,(%rax)
   1400012e0:	90                   	nop
   1400012e1:	48 8b 05 68 a4 00 00 	mov    0xa468(%rip),%rax        # 14000b750 <.refptr.__dyn_tls_init_callback>
   1400012e8:	48 8b 00             	mov    (%rax),%rax
   1400012eb:	48 85 c0             	test   %rax,%rax
   1400012ee:	74 1c                	je     14000130c <__tmainCRTStartup+0x1b8>
   1400012f0:	48 8b 05 59 a4 00 00 	mov    0xa459(%rip),%rax        # 14000b750 <.refptr.__dyn_tls_init_callback>
   1400012f7:	48 8b 00             	mov    (%rax),%rax
   1400012fa:	41 b8 00 00 00 00    	mov    $0x0,%r8d
   140001300:	ba 02 00 00 00       	mov    $0x2,%edx
   140001305:	b9 00 00 00 00       	mov    $0x0,%ecx
   14000130a:	ff d0                	call   *%rax
   14000130c:	e8 ac 11 00 00       	call   1400024bd <_pei386_runtime_relocator>
   140001311:	48 8b 05 58 a5 00 00 	mov    0xa558(%rip),%rax        # 14000b870 <.refptr._gnu_exception_handler>
   140001318:	48 89 c1             	mov    %rax,%rcx
   14000131b:	48 8b 05 a2 00 01 00 	mov    0x100a2(%rip),%rax        # 1400113c4 <__imp_SetUnhandledExceptionFilter>
   140001322:	ff d0                	call   *%rax
   140001324:	48 8b 15 95 a4 00 00 	mov    0xa495(%rip),%rdx        # 14000b7c0 <.refptr.__mingw_oldexcpt_handler>
   14000132b:	48 89 02             	mov    %rax,(%rdx)
   14000132e:	48 8d 05 cb fc ff ff 	lea    -0x335(%rip),%rax        # 140001000 <__mingw_invalidParameterHandler>
   140001335:	48 89 c1             	mov    %rax,%rcx
   140001338:	e8 a3 7b 00 00       	call   140008ee0 <_set_invalid_parameter_handler>
   14000133d:	e8 0e 0a 00 00       	call   140001d50 <_fpreset>
   140001342:	48 8d 05 9f f8 00 00 	lea    0xf89f(%rip),%rax        # 140010be8 <__mingw_winmain_hInstance>
   140001349:	48 8b 15 20 a4 00 00 	mov    0xa420(%rip),%rdx        # 14000b770 <.refptr.__image_base__>
   140001350:	48 89 10             	mov    %rdx,(%rax)
   140001353:	e8 e8 7c 00 00       	call   140009040 <__p__acmdln>
   140001358:	48 8b 00             	mov    (%rax),%rax
   14000135b:	48 89 45 f8          	mov    %rax,-0x8(%rbp)
   14000135f:	48 83 7d f8 00       	cmpq   $0x0,-0x8(%rbp)
   140001364:	74 66                	je     1400013cc <__tmainCRTStartup+0x278>
   140001366:	eb 1d                	jmp    140001385 <__tmainCRTStartup+0x231>
   140001368:	48 8b 45 f8          	mov    -0x8(%rbp),%rax
   14000136c:	0f b6 00             	movzbl (%rax),%eax
   14000136f:	3c 22                	cmp    $0x22,%al
   140001371:	75 0d                	jne    140001380 <__tmainCRTStartup+0x22c>
   140001373:	83 7d f4 00          	cmpl   $0x0,-0xc(%rbp)
   140001377:	0f 94 c0             	sete   %al
   14000137a:	0f b6 c0             	movzbl %al,%eax
   14000137d:	89 45 f4             	mov    %eax,-0xc(%rbp)
   140001380:	48 83 45 f8 01       	addq   $0x1,-0x8(%rbp)
   140001385:	48 8b 45 f8          	mov    -0x8(%rbp),%rax
   140001389:	0f b6 00             	movzbl (%rax),%eax
   14000138c:	3c 20                	cmp    $0x20,%al
   14000138e:	7f d8                	jg     140001368 <__tmainCRTStartup+0x214>
   140001390:	48 8b 45 f8          	mov    -0x8(%rbp),%rax
   140001394:	0f b6 00             	movzbl (%rax),%eax
   140001397:	84 c0                	test   %al,%al
   140001399:	74 0d                	je     1400013a8 <__tmainCRTStartup+0x254>
   14000139b:	83 7d f4 00          	cmpl   $0x0,-0xc(%rbp)
   14000139f:	75 c7                	jne    140001368 <__tmainCRTStartup+0x214>
   1400013a1:	eb 05                	jmp    1400013a8 <__tmainCRTStartup+0x254>
   1400013a3:	48 83 45 f8 01       	addq   $0x1,-0x8(%rbp)
   1400013a8:	48 8b 45 f8          	mov    -0x8(%rbp),%rax
   1400013ac:	0f b6 00             	movzbl (%rax),%eax
   1400013af:	84 c0                	test   %al,%al
   1400013b1:	74 0b                	je     1400013be <__tmainCRTStartup+0x26a>
   1400013b3:	48 8b 45 f8          	mov    -0x8(%rbp),%rax
   1400013b7:	0f b6 00             	movzbl (%rax),%eax
   1400013ba:	3c 20                	cmp    $0x20,%al
   1400013bc:	7e e5                	jle    1400013a3 <__tmainCRTStartup+0x24f>
   1400013be:	48 8d 05 1b f8 00 00 	lea    0xf81b(%rip),%rax        # 140010be0 <__mingw_winmain_lpCmdLine>
   1400013c5:	48 8b 55 f8          	mov    -0x8(%rbp),%rdx
   1400013c9:	48 89 10             	mov    %rdx,(%rax)
   1400013cc:	48 8b 05 cd a4 00 00 	mov    0xa4cd(%rip),%rax        # 14000b8a0 <.refptr.mingw_app_type>
   1400013d3:	8b 00                	mov    (%rax),%eax
   1400013d5:	85 c0                	test   %eax,%eax
   1400013d7:	74 21                	je     1400013fa <__tmainCRTStartup+0x2a6>
   1400013d9:	8b 85 7c ff ff ff    	mov    -0x84(%rbp),%eax
   1400013df:	83 e0 01             	and    $0x1,%eax
   1400013e2:	85 c0                	test   %eax,%eax
   1400013e4:	74 09                	je     1400013ef <__tmainCRTStartup+0x29b>
   1400013e6:	0f b7 45 80          	movzwl -0x80(%rbp),%eax
   1400013ea:	0f b7 c0             	movzwl %ax,%eax
   1400013ed:	eb 05                	jmp    1400013f4 <__tmainCRTStartup+0x2a0>
   1400013ef:	b8 0a 00 00 00       	mov    $0xa,%eax
   1400013f4:	89 05 06 8c 00 00    	mov    %eax,0x8c06(%rip)        # 14000a000 <__data_start__>
   1400013fa:	8b 05 04 ec 00 00    	mov    0xec04(%rip),%eax        # 140010004 <argc>
   140001400:	48 8d 15 01 ec 00 00 	lea    0xec01(%rip),%rdx        # 140010008 <argv>
   140001407:	89 c1                	mov    %eax,%ecx
   140001409:	e8 83 01 00 00       	call   140001591 <duplicate_ppstrings>
   14000140e:	e8 b4 06 00 00       	call   140001ac7 <__main>
   140001413:	48 8b 05 66 a3 00 00 	mov    0xa366(%rip),%rax        # 14000b780 <.refptr.__imp___initenv>
   14000141a:	48 8b 00             	mov    (%rax),%rax
   14000141d:	48 8b 15 ec eb 00 00 	mov    0xebec(%rip),%rdx        # 140010010 <envp>
   140001424:	48 89 10             	mov    %rdx,(%rax)
   140001427:	48 8b 0d e2 eb 00 00 	mov    0xebe2(%rip),%rcx        # 140010010 <envp>
   14000142e:	48 8b 15 d3 eb 00 00 	mov    0xebd3(%rip),%rdx        # 140010008 <argv>
   140001435:	8b 05 c9 eb 00 00    	mov    0xebc9(%rip),%eax        # 140010004 <argc>
   14000143b:	49 89 c8             	mov    %rcx,%r8
   14000143e:	89 c1                	mov    %eax,%ecx
   140001440:	e8 3b 7f 00 00       	call   140009380 <main>
   140001445:	89 05 d1 eb 00 00    	mov    %eax,0xebd1(%rip)        # 14001001c <mainret>
   14000144b:	8b 05 cf eb 00 00    	mov    0xebcf(%rip),%eax        # 140010020 <managedapp>
   140001451:	85 c0                	test   %eax,%eax
   140001453:	75 0d                	jne    140001462 <__tmainCRTStartup+0x30e>
   140001455:	8b 05 c1 eb 00 00    	mov    0xebc1(%rip),%eax        # 14001001c <mainret>
   14000145b:	89 c1                	mov    %eax,%ecx
   14000145d:	e8 3e 73 00 00       	call   1400087a0 <exit>
   140001462:	8b 05 bc eb 00 00    	mov    0xebbc(%rip),%eax        # 140010024 <has_cctor>
   140001468:	85 c0                	test   %eax,%eax
   14000146a:	75 05                	jne    140001471 <__tmainCRTStartup+0x31d>
   14000146c:	e8 6f 73 00 00       	call   1400087e0 <_cexit>
   140001471:	8b 05 a5 eb 00 00    	mov    0xeba5(%rip),%eax        # 14001001c <mainret>
   140001477:	48 81 c4 e0 00 00 00 	add    $0xe0,%rsp
   14000147e:	5d                   	pop    %rbp
   14000147f:	c3                   	ret    

0000000140001480 <check_managed_app>:
   140001480:	55                   	push   %rbp
   140001481:	48 89 e5             	mov    %rsp,%rbp
   140001484:	48 83 ec 20          	sub    $0x20,%rsp
   140001488:	48 8b 05 31 a4 00 00 	mov    0xa431(%rip),%rax        # 14000b8c0 <.refptr.mingw_initltsdrot_force>
   14000148f:	c7 00 01 00 00 00    	movl   $0x1,(%rax)
   140001495:	48 8b 05 34 a4 00 00 	mov    0xa434(%rip),%rax        # 14000b8d0 <.refptr.mingw_initltsdyn_force>
   14000149c:	c7 00 01 00 00 00    	movl   $0x1,(%rax)
   1400014a2:	48 8b 05 37 a4 00 00 	mov    0xa437(%rip),%rax        # 14000b8e0 <.refptr.mingw_initltssuo_force>
   1400014a9:	c7 00 01 00 00 00    	movl   $0x1,(%rax)
   1400014af:	48 8b 05 fa a3 00 00 	mov    0xa3fa(%rip),%rax        # 14000b8b0 <.refptr.mingw_initcharmax>
   1400014b6:	c7 00 01 00 00 00    	movl   $0x1,(%rax)
   1400014bc:	48 8b 05 ad a2 00 00 	mov    0xa2ad(%rip),%rax        # 14000b770 <.refptr.__image_base__>
   1400014c3:	48 89 45 f8          	mov    %rax,-0x8(%rbp)
   1400014c7:	48 8b 45 f8          	mov    -0x8(%rbp),%rax
   1400014cb:	0f b7 00             	movzwl (%rax),%eax
   1400014ce:	66 3d 4d 5a          	cmp    $0x5a4d,%ax
   1400014d2:	74 0a                	je     1400014de <check_managed_app+0x5e>
   1400014d4:	b8 00 00 00 00       	mov    $0x0,%eax
   1400014d9:	e9 ad 00 00 00       	jmp    14000158b <check_managed_app+0x10b>
   1400014de:	48 8b 45 f8          	mov    -0x8(%rbp),%rax
   1400014e2:	8b 40 3c             	mov    0x3c(%rax),%eax
   1400014e5:	48 63 d0             	movslq %eax,%rdx
   1400014e8:	48 8b 45 f8          	mov    -0x8(%rbp),%rax
   1400014ec:	48 01 d0             	add    %rdx,%rax
   1400014ef:	48 89 45 f0          	mov    %rax,-0x10(%rbp)
   1400014f3:	48 8b 45 f0          	mov    -0x10(%rbp),%rax
   1400014f7:	8b 00                	mov    (%rax),%eax
   1400014f9:	3d 50 45 00 00       	cmp    $0x4550,%eax
   1400014fe:	74 0a                	je     14000150a <check_managed_app+0x8a>
   140001500:	b8 00 00 00 00       	mov    $0x0,%eax
   140001505:	e9 81 00 00 00       	jmp    14000158b <check_managed_app+0x10b>
   14000150a:	48 8b 45 f0          	mov    -0x10(%rbp),%rax
   14000150e:	48 83 c0 18          	add    $0x18,%rax
   140001512:	48 89 45 e8          	mov    %rax,-0x18(%rbp)
   140001516:	48 8b 45 e8          	mov    -0x18(%rbp),%rax
   14000151a:	0f b7 00             	movzwl (%rax),%eax
   14000151d:	0f b7 c0             	movzwl %ax,%eax
   140001520:	3d 0b 01 00 00       	cmp    $0x10b,%eax
   140001525:	74 09                	je     140001530 <check_managed_app+0xb0>
   140001527:	3d 0b 02 00 00       	cmp    $0x20b,%eax
   14000152c:	74 29                	je     140001557 <check_managed_app+0xd7>
   14000152e:	eb 56                	jmp    140001586 <check_managed_app+0x106>
   140001530:	48 8b 45 e8          	mov    -0x18(%rbp),%rax
   140001534:	8b 40 5c             	mov    0x5c(%rax),%eax
   140001537:	83 f8 0e             	cmp    $0xe,%eax
   14000153a:	77 07                	ja     140001543 <check_managed_app+0xc3>
   14000153c:	b8 00 00 00 00       	mov    $0x0,%eax
   140001541:	eb 48                	jmp    14000158b <check_managed_app+0x10b>
   140001543:	48 8b 45 e8          	mov    -0x18(%rbp),%rax
   140001547:	8b 80 d0 00 00 00    	mov    0xd0(%rax),%eax
   14000154d:	85 c0                	test   %eax,%eax
   14000154f:	0f 95 c0             	setne  %al
   140001552:	0f b6 c0             	movzbl %al,%eax
   140001555:	eb 34                	jmp    14000158b <check_managed_app+0x10b>
   140001557:	48 8b 45 e8          	mov    -0x18(%rbp),%rax
   14000155b:	48 89 45 e0          	mov    %rax,-0x20(%rbp)
   14000155f:	48 8b 45 e0          	mov    -0x20(%rbp),%rax
   140001563:	8b 40 6c             	mov    0x6c(%rax),%eax
   140001566:	83 f8 0e             	cmp    $0xe,%eax
   140001569:	77 07                	ja     140001572 <check_managed_app+0xf2>
   14000156b:	b8 00 00 00 00       	mov    $0x0,%eax
   140001570:	eb 19                	jmp    14000158b <check_managed_app+0x10b>
   140001572:	48 8b 45 e0          	mov    -0x20(%rbp),%rax
   140001576:	8b 80 e0 00 00 00    	mov    0xe0(%rax),%eax
   14000157c:	85 c0                	test   %eax,%eax
   14000157e:	0f 95 c0             	setne  %al
   140001581:	0f b6 c0             	movzbl %al,%eax
   140001584:	eb 05                	jmp    14000158b <check_managed_app+0x10b>
   140001586:	b8 00 00 00 00       	mov    $0x0,%eax
   14000158b:	48 83 c4 20          	add    $0x20,%rsp
   14000158f:	5d                   	pop    %rbp
   140001590:	c3                   	ret    

0000000140001591 <duplicate_ppstrings>:
   140001591:	55                   	push   %rbp
   140001592:	53                   	push   %rbx
   140001593:	48 83 ec 48          	sub    $0x48,%rsp
   140001597:	48 8d 6c 24 40       	lea    0x40(%rsp),%rbp
   14000159c:	89 4d 20             	mov    %ecx,0x20(%rbp)
   14000159f:	48 89 55 28          	mov    %rdx,0x28(%rbp)
   1400015a3:	8b 45 20             	mov    0x20(%rbp),%eax
   1400015a6:	83 c0 01             	add    $0x1,%eax
   1400015a9:	48 98                	cltq   
   1400015ab:	48 c1 e0 03          	shl    $0x3,%rax
   1400015af:	48 89 c1             	mov    %rax,%rcx
   1400015b2:	e8 b9 71 00 00       	call   140008770 <malloc>
   1400015b7:	48 89 45 f0          	mov    %rax,-0x10(%rbp)
   1400015bb:	48 8b 45 28          	mov    0x28(%rbp),%rax
   1400015bf:	48 8b 00             	mov    (%rax),%rax
   1400015c2:	48 89 45 e8          	mov    %rax,-0x18(%rbp)
   1400015c6:	c7 45 fc 00 00 00 00 	movl   $0x0,-0x4(%rbp)
   1400015cd:	e9 8c 00 00 00       	jmp    14000165e <duplicate_ppstrings+0xcd>
   1400015d2:	8b 45 fc             	mov    -0x4(%rbp),%eax
   1400015d5:	48 98                	cltq   
   1400015d7:	48 8d 14 c5 00 00 00 	lea    0x0(,%rax,8),%rdx
   1400015de:	00 
   1400015df:	48 8b 45 e8          	mov    -0x18(%rbp),%rax
   1400015e3:	48 01 d0             	add    %rdx,%rax
   1400015e6:	48 8b 00             	mov    (%rax),%rax
   1400015e9:	48 89 c1             	mov    %rax,%rcx
   1400015ec:	e8 57 71 00 00       	call   140008748 <strlen>
   1400015f1:	48 83 c0 01          	add    $0x1,%rax
   1400015f5:	48 89 45 e0          	mov    %rax,-0x20(%rbp)
   1400015f9:	8b 45 fc             	mov    -0x4(%rbp),%eax
   1400015fc:	48 98                	cltq   
   1400015fe:	48 8d 14 c5 00 00 00 	lea    0x0(,%rax,8),%rdx
   140001605:	00 
   140001606:	48 8b 45 f0          	mov    -0x10(%rbp),%rax
   14000160a:	48 8d 1c 02          	lea    (%rdx,%rax,1),%rbx
   14000160e:	48 8b 45 e0          	mov    -0x20(%rbp),%rax
   140001612:	48 89 c1             	mov    %rax,%rcx
   140001615:	e8 56 71 00 00       	call   140008770 <malloc>
   14000161a:	48 89 03             	mov    %rax,(%rbx)
   14000161d:	8b 45 fc             	mov    -0x4(%rbp),%eax
   140001620:	48 98                	cltq   
   140001622:	48 8d 14 c5 00 00 00 	lea    0x0(,%rax,8),%rdx
   140001629:	00 
   14000162a:	48 8b 45 e8          	mov    -0x18(%rbp),%rax
   14000162e:	48 01 d0             	add    %rdx,%rax
   140001631:	48 8b 10             	mov    (%rax),%rdx
   140001634:	8b 45 fc             	mov    -0x4(%rbp),%eax
   140001637:	48 98                	cltq   
   140001639:	48 8d 0c c5 00 00 00 	lea    0x0(,%rax,8),%rcx
   140001640:	00 
   140001641:	48 8b 45 f0          	mov    -0x10(%rbp),%rax
   140001645:	48 01 c8             	add    %rcx,%rax
   140001648:	48 8b 00             	mov    (%rax),%rax
   14000164b:	48 8b 4d e0          	mov    -0x20(%rbp),%rcx
   14000164f:	49 89 c8             	mov    %rcx,%r8
   140001652:	48 89 c1             	mov    %rax,%rcx
   140001655:	e8 0e 71 00 00       	call   140008768 <memcpy>
   14000165a:	83 45 fc 01          	addl   $0x1,-0x4(%rbp)
   14000165e:	8b 45 fc             	mov    -0x4(%rbp),%eax
   140001661:	3b 45 20             	cmp    0x20(%rbp),%eax
   140001664:	0f 8c 68 ff ff ff    	jl     1400015d2 <duplicate_ppstrings+0x41>
   14000166a:	8b 45 fc             	mov    -0x4(%rbp),%eax
   14000166d:	48 98                	cltq   
   14000166f:	48 8d 14 c5 00 00 00 	lea    0x0(,%rax,8),%rdx
   140001676:	00 
   140001677:	48 8b 45 f0          	mov    -0x10(%rbp),%rax
   14000167b:	48 01 d0             	add    %rdx,%rax
   14000167e:	48 c7 00 00 00 00 00 	movq   $0x0,(%rax)
   140001685:	48 8b 45 28          	mov    0x28(%rbp),%rax
   140001689:	48 8b 55 f0          	mov    -0x10(%rbp),%rdx
   14000168d:	48 89 10             	mov    %rdx,(%rax)
   140001690:	90                   	nop
   140001691:	48 83 c4 48          	add    $0x48,%rsp
   140001695:	5b                   	pop    %rbx
   140001696:	5d                   	pop    %rbp
   140001697:	c3                   	ret    

0000000140001698 <atexit>:
   140001698:	55                   	push   %rbp
   140001699:	48 89 e5             	mov    %rsp,%rbp
   14000169c:	48 83 ec 20          	sub    $0x20,%rsp
   1400016a0:	48 89 4d 10          	mov    %rcx,0x10(%rbp)
   1400016a4:	48 8b 4d 10          	mov    0x10(%rbp),%rcx
   1400016a8:	e8 1b 71 00 00       	call   1400087c8 <_onexit>
   1400016ad:	48 85 c0             	test   %rax,%rax
   1400016b0:	74 07                	je     1400016b9 <atexit+0x21>
   1400016b2:	b8 00 00 00 00       	mov    $0x0,%eax
   1400016b7:	eb 05                	jmp    1400016be <atexit+0x26>
   1400016b9:	b8 ff ff ff ff       	mov    $0xffffffff,%eax
   1400016be:	48 83 c4 20          	add    $0x20,%rsp
   1400016c2:	5d                   	pop    %rbp
   1400016c3:	c3                   	ret    
   1400016c4:	90                   	nop
   1400016c5:	90                   	nop
   1400016c6:	90                   	nop
   1400016c7:	90                   	nop
   1400016c8:	90                   	nop
   1400016c9:	90                   	nop
   1400016ca:	90                   	nop
   1400016cb:	90                   	nop
   1400016cc:	90                   	nop
   1400016cd:	90                   	nop
   1400016ce:	90                   	nop
   1400016cf:	90                   	nop

00000001400016d0 <.weak.__register_frame_info.hmod_libgcc>:
   1400016d0:	c3                   	ret    
   1400016d1:	66 66 2e 0f 1f 84 00 	data16 cs nopw 0x0(%rax,%rax,1)
   1400016d8:	00 00 00 00 
   1400016dc:	0f 1f 40 00          	nopl   0x0(%rax)

00000001400016e0 <.weak.__deregister_frame_info.hmod_libgcc>:
   1400016e0:	31 c0                	xor    %eax,%eax
   1400016e2:	c3                   	ret    
   1400016e3:	66 66 2e 0f 1f 84 00 	data16 cs nopw 0x0(%rax,%rax,1)
   1400016ea:	00 00 00 00 
   1400016ee:	66 90                	xchg   %ax,%ax

00000001400016f0 <__gcc_register_frame>:
   1400016f0:	55                   	push   %rbp
   1400016f1:	41 55                	push   %r13
   1400016f3:	41 54                	push   %r12
   1400016f5:	53                   	push   %rbx
   1400016f6:	48 83 ec 28          	sub    $0x28,%rsp
   1400016fa:	48 8d 6c 24 20       	lea    0x20(%rsp),%rbp
   1400016ff:	4c 8d 2d fa 98 00 00 	lea    0x98fa(%rip),%r13        # 14000b000 <.rdata>
   140001706:	4c 89 e9             	mov    %r13,%rcx
   140001709:	ff 15 75 fc 00 00    	call   *0xfc75(%rip)        # 140011384 <__imp_GetModuleHandleA>
   14000170f:	49 89 c4             	mov    %rax,%r12
   140001712:	48 85 c0             	test   %rax,%rax
   140001715:	74 59                	je     140001770 <__gcc_register_frame+0x80>
   140001717:	4c 89 e9             	mov    %r13,%rcx
   14000171a:	ff 15 94 fc 00 00    	call   *0xfc94(%rip)        # 1400113b4 <__imp_LoadLibraryA>
   140001720:	4c 8b 2d 65 fc 00 00 	mov    0xfc65(%rip),%r13        # 14001138c <__imp_GetProcAddress>
   140001727:	48 8d 15 e5 98 00 00 	lea    0x98e5(%rip),%rdx        # 14000b013 <.rdata+0x13>
   14000172e:	4c 89 e1             	mov    %r12,%rcx
   140001731:	48 89 05 08 e9 00 00 	mov    %rax,0xe908(%rip)        # 140010040 <hmod_libgcc>
   140001738:	41 ff d5             	call   *%r13
   14000173b:	48 8d 15 e7 98 00 00 	lea    0x98e7(%rip),%rdx        # 14000b029 <.rdata+0x29>
   140001742:	4c 89 e1             	mov    %r12,%rcx
   140001745:	48 89 c3             	mov    %rax,%rbx
   140001748:	41 ff d5             	call   *%r13
   14000174b:	48 89 05 be 88 00 00 	mov    %rax,0x88be(%rip)        # 14000a010 <deregister_frame_fn>
   140001752:	48 85 db             	test   %rbx,%rbx
   140001755:	75 2e                	jne    140001785 <__gcc_register_frame+0x95>
   140001757:	48 8d 0d 42 00 00 00 	lea    0x42(%rip),%rcx        # 1400017a0 <__gcc_deregister_frame>
   14000175e:	48 83 c4 28          	add    $0x28,%rsp
   140001762:	5b                   	pop    %rbx
   140001763:	41 5c                	pop    %r12
   140001765:	41 5d                	pop    %r13
   140001767:	5d                   	pop    %rbp
   140001768:	e9 2b ff ff ff       	jmp    140001698 <atexit>
   14000176d:	0f 1f 00             	nopl   (%rax)
   140001770:	48 8d 05 69 ff ff ff 	lea    -0x97(%rip),%rax        # 1400016e0 <.weak.__deregister_frame_info.hmod_libgcc>
   140001777:	48 8d 1d 52 ff ff ff 	lea    -0xae(%rip),%rbx        # 1400016d0 <.weak.__register_frame_info.hmod_libgcc>
   14000177e:	48 89 05 8b 88 00 00 	mov    %rax,0x888b(%rip)        # 14000a010 <deregister_frame_fn>
   140001785:	48 8d 15 d4 e8 00 00 	lea    0xe8d4(%rip),%rdx        # 140010060 <obj>
   14000178c:	48 8d 0d 6d b8 00 00 	lea    0xb86d(%rip),%rcx        # 14000d000 <__EH_FRAME_BEGIN__>
   140001793:	ff d3                	call   *%rbx
   140001795:	eb c0                	jmp    140001757 <__gcc_register_frame+0x67>
   140001797:	66 0f 1f 84 00 00 00 	nopw   0x0(%rax,%rax,1)
   14000179e:	00 00 

00000001400017a0 <__gcc_deregister_frame>:
   1400017a0:	55                   	push   %rbp
   1400017a1:	48 89 e5             	mov    %rsp,%rbp
   1400017a4:	48 83 ec 20          	sub    $0x20,%rsp
   1400017a8:	48 8b 05 61 88 00 00 	mov    0x8861(%rip),%rax        # 14000a010 <deregister_frame_fn>
   1400017af:	48 85 c0             	test   %rax,%rax
   1400017b2:	74 09                	je     1400017bd <__gcc_deregister_frame+0x1d>
   1400017b4:	48 8d 0d 45 b8 00 00 	lea    0xb845(%rip),%rcx        # 14000d000 <__EH_FRAME_BEGIN__>
   1400017bb:	ff d0                	call   *%rax
   1400017bd:	48 8b 0d 7c e8 00 00 	mov    0xe87c(%rip),%rcx        # 140010040 <hmod_libgcc>
   1400017c4:	48 85 c9             	test   %rcx,%rcx
   1400017c7:	74 0f                	je     1400017d8 <__gcc_deregister_frame+0x38>
   1400017c9:	48 83 c4 20          	add    $0x20,%rsp
   1400017cd:	5d                   	pop    %rbp
   1400017ce:	48 ff 25 9f fb 00 00 	rex.W jmp *0xfb9f(%rip)        # 140011374 <__imp_FreeLibrary>
   1400017d5:	0f 1f 00             	nopl   (%rax)
   1400017d8:	48 83 c4 20          	add    $0x20,%rsp
   1400017dc:	5d                   	pop    %rbp
   1400017dd:	c3                   	ret    
   1400017de:	90                   	nop
   1400017df:	90                   	nop

00000001400017e0 <_ZL6printfPKcz>:
   1400017e0:	41 54                	push   %r12
   1400017e2:	53                   	push   %rbx
   1400017e3:	48 83 ec 38          	sub    $0x38,%rsp
   1400017e7:	48 8d 5c 24 58       	lea    0x58(%rsp),%rbx
   1400017ec:	48 89 54 24 58       	mov    %rdx,0x58(%rsp)
   1400017f1:	4c 89 44 24 60       	mov    %r8,0x60(%rsp)
   1400017f6:	4c 89 4c 24 68       	mov    %r9,0x68(%rsp)
   1400017fb:	48 89 5c 24 28       	mov    %rbx,0x28(%rsp)
   140001800:	49 89 cc             	mov    %rcx,%r12
   140001803:	b9 01 00 00 00       	mov    $0x1,%ecx
   140001808:	ff 15 c2 88 00 00    	call   *0x88c2(%rip)        # 14000a0d0 <__imp___acrt_iob_func>
   14000180e:	48 89 c1             	mov    %rax,%rcx
   140001811:	49 89 d8             	mov    %rbx,%r8
   140001814:	4c 89 e2             	mov    %r12,%rdx
   140001817:	e8 14 18 00 00       	call   140003030 <__mingw_vfprintf>
   14000181c:	48 83 c4 38          	add    $0x38,%rsp
   140001820:	5b                   	pop    %rbx
   140001821:	41 5c                	pop    %r12
   140001823:	c3                   	ret    
   140001824:	66 66 2e 0f 1f 84 00 	data16 cs nopw 0x0(%rax,%rax,1)
   14000182b:	00 00 00 00 
   14000182f:	90                   	nop

0000000140001830 <_Z14workerFunctionP6Worker>:
   140001830:	41 55                	push   %r13
   140001832:	41 54                	push   %r12
   140001834:	55                   	push   %rbp
   140001835:	57                   	push   %rdi
   140001836:	56                   	push   %rsi
   140001837:	53                   	push   %rbx
   140001838:	48 81 ec 98 01 00 00 	sub    $0x198,%rsp
   14000183f:	8b 79 08             	mov    0x8(%rcx),%edi
   140001842:	48 8b 31             	mov    (%rcx),%rsi
   140001845:	e8 5e 6f 00 00       	call   1400087a8 <clock>
   14000184a:	31 c9                	xor    %ecx,%ecx
   14000184c:	48 63 d8             	movslq %eax,%rbx
   14000184f:	ff 15 37 fc 00 00    	call   *0xfc37(%rip)        # 14001148c <__imp__time64>
   140001855:	48 01 c3             	add    %rax,%rbx
   140001858:	85 ff                	test   %edi,%edi
   14000185a:	0f 8e b0 00 00 00    	jle    140001910 <_Z14workerFunctionP6Worker+0xe0>
   140001860:	48 83 c6 08          	add    $0x8,%rsi
   140001864:	41 bc 02 00 00 00    	mov    $0x2,%r12d
   14000186a:	48 8d 4c 24 20       	lea    0x20(%rsp),%rcx
   14000186f:	48 bd 37 9f 71 16 60 	movabs $0x6719f36016719f37,%rbp
   140001876:	f3 19 67 
   140001879:	0f 1f 80 00 00 00 00 	nopl   0x0(%rax)
   140001880:	45 31 ed             	xor    %r13d,%r13d
   140001883:	0f 1f 44 00 00       	nopl   0x0(%rax,%rax,1)
   140001888:	41 b8 6d 01 00 00    	mov    $0x16d,%r8d
   14000188e:	31 d2                	xor    %edx,%edx
   140001890:	e8 cb 6e 00 00       	call   140008760 <memset>
   140001895:	48 89 c1             	mov    %rax,%rcx
   140001898:	45 31 c0             	xor    %r8d,%r8d
   14000189b:	0f 1f 44 00 00       	nopl   0x0(%rax,%rax,1)
   1400018a0:	48 89 d8             	mov    %rbx,%rax
   1400018a3:	48 c1 e0 0d          	shl    $0xd,%rax
   1400018a7:	48 31 d8             	xor    %rbx,%rax
   1400018aa:	48 89 c2             	mov    %rax,%rdx
   1400018ad:	48 c1 ea 07          	shr    $0x7,%rdx
   1400018b1:	48 31 d0             	xor    %rdx,%rax
   1400018b4:	48 89 c3             	mov    %rax,%rbx
   1400018b7:	48 c1 e3 11          	shl    $0x11,%rbx
   1400018bb:	48 31 c3             	xor    %rax,%rbx
   1400018be:	48 89 d8             	mov    %rbx,%rax
   1400018c1:	48 f7 e5             	mul    %rbp
   1400018c4:	48 89 d8             	mov    %rbx,%rax
   1400018c7:	48 29 d0             	sub    %rdx,%rax
   1400018ca:	48 d1 e8             	shr    %rax
   1400018cd:	48 01 c2             	add    %rax,%rdx
   1400018d0:	48 c1 ea 08          	shr    $0x8,%rdx
   1400018d4:	48 69 d2 6d 01 00 00 	imul   $0x16d,%rdx,%rdx
   1400018db:	48 89 d8             	mov    %rbx,%rax
   1400018de:	48 29 d0             	sub    %rdx,%rax
   1400018e1:	48 98                	cltq   
   1400018e3:	80 7c 04 20 00       	cmpb   $0x0,0x20(%rsp,%rax,1)
   1400018e8:	75 36                	jne    140001920 <_Z14workerFunctionP6Worker+0xf0>
   1400018ea:	41 ff c0             	inc    %r8d
   1400018ed:	c6 44 04 20 01       	movb   $0x1,0x20(%rsp,%rax,1)
   1400018f2:	45 39 e0             	cmp    %r12d,%r8d
   1400018f5:	75 a9                	jne    1400018a0 <_Z14workerFunctionP6Worker+0x70>
   1400018f7:	41 ff c5             	inc    %r13d
   1400018fa:	44 39 ef             	cmp    %r13d,%edi
   1400018fd:	75 89                	jne    140001888 <_Z14workerFunctionP6Worker+0x58>
   1400018ff:	41 ff c4             	inc    %r12d
   140001902:	48 83 c6 04          	add    $0x4,%rsi
   140001906:	41 83 fc 65          	cmp    $0x65,%r12d
   14000190a:	0f 85 70 ff ff ff    	jne    140001880 <_Z14workerFunctionP6Worker+0x50>
   140001910:	48 81 c4 98 01 00 00 	add    $0x198,%rsp
   140001917:	5b                   	pop    %rbx
   140001918:	5e                   	pop    %rsi
   140001919:	5f                   	pop    %rdi
   14000191a:	5d                   	pop    %rbp
   14000191b:	41 5c                	pop    %r12
   14000191d:	41 5d                	pop    %r13
   14000191f:	c3                   	ret    
   140001920:	f0 ff 06             	lock incl (%rsi)
   140001923:	41 ff c5             	inc    %r13d
   140001926:	44 39 ef             	cmp    %r13d,%edi
   140001929:	0f 85 59 ff ff ff    	jne    140001888 <_Z14workerFunctionP6Worker+0x58>
   14000192f:	eb ce                	jmp    1400018ff <_Z14workerFunctionP6Worker+0xcf>
   140001931:	66 66 2e 0f 1f 84 00 	data16 cs nopw 0x0(%rax,%rax,1)
   140001938:	00 00 00 00 
   14000193c:	0f 1f 40 00          	nopl   0x0(%rax)

0000000140001940 <__tcf_0>:
   140001940:	48 8d 0d 59 e7 00 00 	lea    0xe759(%rip),%rcx        # 1400100a0 <_ZStL8__ioinit>
   140001947:	e9 94 00 00 00       	jmp    1400019e0 <_ZNSt8ios_base4InitD1Ev>
   14000194c:	0f 1f 40 00          	nopl   0x0(%rax)

0000000140001950 <_ZL6printfPKcz.constprop.0>:
   140001950:	53                   	push   %rbx
   140001951:	48 83 ec 30          	sub    $0x30,%rsp
   140001955:	b9 01 00 00 00       	mov    $0x1,%ecx
   14000195a:	48 8d 5c 24 48       	lea    0x48(%rsp),%rbx
   14000195f:	48 89 54 24 48       	mov    %rdx,0x48(%rsp)
   140001964:	4c 89 44 24 50       	mov    %r8,0x50(%rsp)
   140001969:	4c 89 4c 24 58       	mov    %r9,0x58(%rsp)
   14000196e:	48 89 5c 24 28       	mov    %rbx,0x28(%rsp)
   140001973:	ff 15 57 87 00 00    	call   *0x8757(%rip)        # 14000a0d0 <__imp___acrt_iob_func>
   140001979:	48 89 c1             	mov    %rax,%rcx
   14000197c:	49 89 d8             	mov    %rbx,%r8
   14000197f:	48 8d 15 ca 96 00 00 	lea    0x96ca(%rip),%rdx        # 14000b050 <.rdata>
   140001986:	e8 a5 16 00 00       	call   140003030 <__mingw_vfprintf>
   14000198b:	48 83 c4 30          	add    $0x30,%rsp
   14000198f:	5b                   	pop    %rbx
   140001990:	c3                   	ret    
   140001991:	90                   	nop
   140001992:	90                   	nop
   140001993:	90                   	nop
   140001994:	90                   	nop
   140001995:	90                   	nop
   140001996:	90                   	nop
   140001997:	90                   	nop
   140001998:	90                   	nop
   140001999:	90                   	nop
   14000199a:	90                   	nop
   14000199b:	90                   	nop
   14000199c:	90                   	nop
   14000199d:	90                   	nop
   14000199e:	90                   	nop
   14000199f:	90                   	nop

00000001400019a0 <__gxx_personality_seh0>:
   1400019a0:	ff 25 ae f9 00 00    	jmp    *0xf9ae(%rip)        # 140011354 <__imp___gxx_personality_seh0>
   1400019a6:	90                   	nop
   1400019a7:	90                   	nop

00000001400019a8 <__cxa_throw_bad_array_new_length>:
   1400019a8:	ff 25 9e f9 00 00    	jmp    *0xf99e(%rip)        # 14001134c <__imp___cxa_throw_bad_array_new_length>
   1400019ae:	90                   	nop
   1400019af:	90                   	nop

00000001400019b0 <_Znwy>:
   1400019b0:	ff 25 8e f9 00 00    	jmp    *0xf98e(%rip)        # 140011344 <__imp__Znwy>
   1400019b6:	90                   	nop
   1400019b7:	90                   	nop

00000001400019b8 <_Znay>:
   1400019b8:	ff 25 7e f9 00 00    	jmp    *0xf97e(%rip)        # 14001133c <__imp__Znay>
   1400019be:	90                   	nop
   1400019bf:	90                   	nop

00000001400019c0 <_ZdlPvy>:
   1400019c0:	ff 25 6e f9 00 00    	jmp    *0xf96e(%rip)        # 140011334 <__imp__ZdlPvy>
   1400019c6:	90                   	nop
   1400019c7:	90                   	nop

00000001400019c8 <_ZdaPv>:
   1400019c8:	ff 25 5e f9 00 00    	jmp    *0xf95e(%rip)        # 14001132c <__imp__ZdaPv>
   1400019ce:	90                   	nop
   1400019cf:	90                   	nop

00000001400019d0 <_ZSt9terminatev>:
   1400019d0:	ff 25 3e f9 00 00    	jmp    *0xf93e(%rip)        # 140011314 <__imp__ZSt9terminatev>
   1400019d6:	90                   	nop
   1400019d7:	90                   	nop

00000001400019d8 <_ZSt20__throw_length_errorPKc>:
   1400019d8:	ff 25 2e f9 00 00    	jmp    *0xf92e(%rip)        # 14001130c <__imp__ZSt20__throw_length_errorPKc>
   1400019de:	90                   	nop
   1400019df:	90                   	nop

00000001400019e0 <_ZNSt8ios_base4InitD1Ev>:
   1400019e0:	ff 25 1e f9 00 00    	jmp    *0xf91e(%rip)        # 140011304 <__imp__ZNSt8ios_base4InitD1Ev>
   1400019e6:	90                   	nop
   1400019e7:	90                   	nop

00000001400019e8 <_ZNSt8ios_base4InitC1Ev>:
   1400019e8:	ff 25 0e f9 00 00    	jmp    *0xf90e(%rip)        # 1400112fc <__imp__ZNSt8ios_base4InitC1Ev>
   1400019ee:	90                   	nop
   1400019ef:	90                   	nop

00000001400019f0 <_ZNSt6thread6_StateD2Ev>:
   1400019f0:	ff 25 fe f8 00 00    	jmp    *0xf8fe(%rip)        # 1400112f4 <__imp__ZNSt6thread6_StateD2Ev>
   1400019f6:	90                   	nop
   1400019f7:	90                   	nop

00000001400019f8 <_ZNSt6thread4joinEv>:
   1400019f8:	ff 25 ee f8 00 00    	jmp    *0xf8ee(%rip)        # 1400112ec <__imp__ZNSt6thread4joinEv>
   1400019fe:	90                   	nop
   1400019ff:	90                   	nop

0000000140001a00 <_ZNSt6thread20hardware_concurrencyEv>:
   140001a00:	ff 25 de f8 00 00    	jmp    *0xf8de(%rip)        # 1400112e4 <__imp__ZNSt6thread20hardware_concurrencyEv>
   140001a06:	90                   	nop
   140001a07:	90                   	nop

0000000140001a08 <_ZNSt6thread15_M_start_threadESt10unique_ptrINS_6_StateESt14default_deleteIS1_EEPFvvE>:
   140001a08:	ff 25 ce f8 00 00    	jmp    *0xf8ce(%rip)        # 1400112dc <__imp__ZNSt6thread15_M_start_threadESt10unique_ptrINS_6_StateESt14default_deleteIS1_EEPFvvE>
   140001a0e:	90                   	nop
   140001a0f:	90                   	nop

0000000140001a10 <__do_global_dtors>:
   140001a10:	55                   	push   %rbp
   140001a11:	48 89 e5             	mov    %rsp,%rbp
   140001a14:	48 83 ec 20          	sub    $0x20,%rsp
   140001a18:	eb 1e                	jmp    140001a38 <__do_global_dtors+0x28>
   140001a1a:	48 8b 05 ff 85 00 00 	mov    0x85ff(%rip),%rax        # 14000a020 <p.0>
   140001a21:	48 8b 00             	mov    (%rax),%rax
   140001a24:	ff d0                	call   *%rax
   140001a26:	48 8b 05 f3 85 00 00 	mov    0x85f3(%rip),%rax        # 14000a020 <p.0>
   140001a2d:	48 83 c0 08          	add    $0x8,%rax
   140001a31:	48 89 05 e8 85 00 00 	mov    %rax,0x85e8(%rip)        # 14000a020 <p.0>
   140001a38:	48 8b 05 e1 85 00 00 	mov    0x85e1(%rip),%rax        # 14000a020 <p.0>
   140001a3f:	48 8b 00             	mov    (%rax),%rax
   140001a42:	48 85 c0             	test   %rax,%rax
   140001a45:	75 d3                	jne    140001a1a <__do_global_dtors+0xa>
   140001a47:	90                   	nop
   140001a48:	90                   	nop
   140001a49:	48 83 c4 20          	add    $0x20,%rsp
   140001a4d:	5d                   	pop    %rbp
   140001a4e:	c3                   	ret    

0000000140001a4f <__do_global_ctors>:
   140001a4f:	55                   	push   %rbp
   140001a50:	48 89 e5             	mov    %rsp,%rbp
   140001a53:	48 83 ec 30          	sub    $0x30,%rsp
   140001a57:	48 8b 05 b2 9c 00 00 	mov    0x9cb2(%rip),%rax        # 14000b710 <.refptr.__CTOR_LIST__>
   140001a5e:	48 8b 00             	mov    (%rax),%rax
   140001a61:	89 45 fc             	mov    %eax,-0x4(%rbp)
   140001a64:	83 7d fc ff          	cmpl   $0xffffffff,-0x4(%rbp)
   140001a68:	75 25                	jne    140001a8f <__do_global_ctors+0x40>
   140001a6a:	c7 45 fc 00 00 00 00 	movl   $0x0,-0x4(%rbp)
   140001a71:	eb 04                	jmp    140001a77 <__do_global_ctors+0x28>
   140001a73:	83 45 fc 01          	addl   $0x1,-0x4(%rbp)
   140001a77:	8b 45 fc             	mov    -0x4(%rbp),%eax
   140001a7a:	8d 50 01             	lea    0x1(%rax),%edx
   140001a7d:	48 8b 05 8c 9c 00 00 	mov    0x9c8c(%rip),%rax        # 14000b710 <.refptr.__CTOR_LIST__>
   140001a84:	89 d2                	mov    %edx,%edx
   140001a86:	48 8b 04 d0          	mov    (%rax,%rdx,8),%rax
   140001a8a:	48 85 c0             	test   %rax,%rax
   140001a8d:	75 e4                	jne    140001a73 <__do_global_ctors+0x24>
   140001a8f:	8b 45 fc             	mov    -0x4(%rbp),%eax
   140001a92:	89 45 f8             	mov    %eax,-0x8(%rbp)
   140001a95:	eb 14                	jmp    140001aab <__do_global_ctors+0x5c>
   140001a97:	48 8b 05 72 9c 00 00 	mov    0x9c72(%rip),%rax        # 14000b710 <.refptr.__CTOR_LIST__>
   140001a9e:	8b 55 f8             	mov    -0x8(%rbp),%edx
   140001aa1:	48 8b 04 d0          	mov    (%rax,%rdx,8),%rax
   140001aa5:	ff d0                	call   *%rax
   140001aa7:	83 6d f8 01          	subl   $0x1,-0x8(%rbp)
   140001aab:	83 7d f8 00          	cmpl   $0x0,-0x8(%rbp)
   140001aaf:	75 e6                	jne    140001a97 <__do_global_ctors+0x48>
   140001ab1:	48 8d 05 58 ff ff ff 	lea    -0xa8(%rip),%rax        # 140001a10 <__do_global_dtors>
   140001ab8:	48 89 c1             	mov    %rax,%rcx
   140001abb:	e8 d8 fb ff ff       	call   140001698 <atexit>
   140001ac0:	90                   	nop
   140001ac1:	48 83 c4 30          	add    $0x30,%rsp
   140001ac5:	5d                   	pop    %rbp
   140001ac6:	c3                   	ret    

0000000140001ac7 <__main>:
   140001ac7:	55                   	push   %rbp
   140001ac8:	48 89 e5             	mov    %rsp,%rbp
   140001acb:	48 83 ec 20          	sub    $0x20,%rsp
   140001acf:	8b 05 db e5 00 00    	mov    0xe5db(%rip),%eax        # 1400100b0 <initialized>
   140001ad5:	85 c0                	test   %eax,%eax
   140001ad7:	75 0f                	jne    140001ae8 <__main+0x21>
   140001ad9:	c7 05 cd e5 00 00 01 	movl   $0x1,0xe5cd(%rip)        # 1400100b0 <initialized>
   140001ae0:	00 00 00 
   140001ae3:	e8 67 ff ff ff       	call   140001a4f <__do_global_ctors>
   140001ae8:	90                   	nop
   140001ae9:	48 83 c4 20          	add    $0x20,%rsp
   140001aed:	5d                   	pop    %rbp
   140001aee:	c3                   	ret    
   140001aef:	90                   	nop

0000000140001af0 <my_lconv_init>:
   140001af0:	55                   	push   %rbp
   140001af1:	48 89 e5             	mov    %rsp,%rbp
   140001af4:	48 83 ec 20          	sub    $0x20,%rsp
   140001af8:	48 8b 05 2d f9 00 00 	mov    0xf92d(%rip),%rax        # 14001142c <__imp___lconv_init>
   140001aff:	ff d0                	call   *%rax
   140001b01:	48 83 c4 20          	add    $0x20,%rsp
   140001b05:	5d                   	pop    %rbp
   140001b06:	c3                   	ret    
   140001b07:	90                   	nop
   140001b08:	90                   	nop
   140001b09:	90                   	nop
   140001b0a:	90                   	nop
   140001b0b:	90                   	nop
   140001b0c:	90                   	nop
   140001b0d:	90                   	nop
   140001b0e:	90                   	nop
   140001b0f:	90                   	nop

0000000140001b10 <_setargv>:
   140001b10:	55                   	push   %rbp
   140001b11:	48 89 e5             	mov    %rsp,%rbp
   140001b14:	b8 00 00 00 00       	mov    $0x0,%eax
   140001b19:	5d                   	pop    %rbp
   140001b1a:	c3                   	ret    
   140001b1b:	90                   	nop
   140001b1c:	90                   	nop
   140001b1d:	90                   	nop
   140001b1e:	90                   	nop
   140001b1f:	90                   	nop

0000000140001b20 <__dyn_tls_init>:
   140001b20:	55                   	push   %rbp
   140001b21:	48 89 e5             	mov    %rsp,%rbp
   140001b24:	48 83 ec 30          	sub    $0x30,%rsp
   140001b28:	48 89 4d 10          	mov    %rcx,0x10(%rbp)
   140001b2c:	89 55 18             	mov    %edx,0x18(%rbp)
   140001b2f:	4c 89 45 20          	mov    %r8,0x20(%rbp)
   140001b33:	48 8b 05 b6 9b 00 00 	mov    0x9bb6(%rip),%rax        # 14000b6f0 <.refptr._CRT_MT>
   140001b3a:	8b 00                	mov    (%rax),%eax
   140001b3c:	83 f8 02             	cmp    $0x2,%eax
   140001b3f:	74 0d                	je     140001b4e <__dyn_tls_init+0x2e>
   140001b41:	48 8b 05 a8 9b 00 00 	mov    0x9ba8(%rip),%rax        # 14000b6f0 <.refptr._CRT_MT>
   140001b48:	c7 00 02 00 00 00    	movl   $0x2,(%rax)
   140001b4e:	83 7d 18 02          	cmpl   $0x2,0x18(%rbp)
   140001b52:	74 22                	je     140001b76 <__dyn_tls_init+0x56>
   140001b54:	83 7d 18 01          	cmpl   $0x1,0x18(%rbp)
   140001b58:	75 15                	jne    140001b6f <__dyn_tls_init+0x4f>
   140001b5a:	48 8b 55 20          	mov    0x20(%rbp),%rdx
   140001b5e:	8b 45 18             	mov    0x18(%rbp),%eax
   140001b61:	49 89 d0             	mov    %rdx,%r8
   140001b64:	89 c2                	mov    %eax,%edx
   140001b66:	48 8b 4d 10          	mov    0x10(%rbp),%rcx
   140001b6a:	e8 c2 0e 00 00       	call   140002a31 <__mingw_TLScallback>
   140001b6f:	b8 01 00 00 00       	mov    $0x1,%eax
   140001b74:	eb 46                	jmp    140001bbc <__dyn_tls_init+0x9c>
   140001b76:	48 8d 05 db 04 01 00 	lea    0x104db(%rip),%rax        # 140012058 <___crt_xp_end__>
   140001b7d:	48 89 45 f8          	mov    %rax,-0x8(%rbp)
   140001b81:	48 83 45 f8 08       	addq   $0x8,-0x8(%rbp)
   140001b86:	eb 22                	jmp    140001baa <__dyn_tls_init+0x8a>
   140001b88:	48 8b 45 f8          	mov    -0x8(%rbp),%rax
   140001b8c:	48 89 45 f0          	mov    %rax,-0x10(%rbp)
   140001b90:	48 8b 45 f0          	mov    -0x10(%rbp),%rax
   140001b94:	48 8b 00             	mov    (%rax),%rax
   140001b97:	48 85 c0             	test   %rax,%rax
   140001b9a:	74 09                	je     140001ba5 <__dyn_tls_init+0x85>
   140001b9c:	48 8b 45 f0          	mov    -0x10(%rbp),%rax
   140001ba0:	48 8b 00             	mov    (%rax),%rax
   140001ba3:	ff d0                	call   *%rax
   140001ba5:	48 83 45 f8 08       	addq   $0x8,-0x8(%rbp)
   140001baa:	48 8d 05 af 04 01 00 	lea    0x104af(%rip),%rax        # 140012060 <__xd_z>
   140001bb1:	48 39 45 f8          	cmp    %rax,-0x8(%rbp)
   140001bb5:	75 d1                	jne    140001b88 <__dyn_tls_init+0x68>
   140001bb7:	b8 01 00 00 00       	mov    $0x1,%eax
   140001bbc:	48 83 c4 30          	add    $0x30,%rsp
   140001bc0:	5d                   	pop    %rbp
   140001bc1:	c3                   	ret    

0000000140001bc2 <__tlregdtor>:
   140001bc2:	55                   	push   %rbp
   140001bc3:	48 89 e5             	mov    %rsp,%rbp
   140001bc6:	48 89 4d 10          	mov    %rcx,0x10(%rbp)
   140001bca:	48 83 7d 10 00       	cmpq   $0x0,0x10(%rbp)
   140001bcf:	75 07                	jne    140001bd8 <__tlregdtor+0x16>
   140001bd1:	b8 00 00 00 00       	mov    $0x0,%eax
   140001bd6:	eb 05                	jmp    140001bdd <__tlregdtor+0x1b>
   140001bd8:	b8 00 00 00 00       	mov    $0x0,%eax
   140001bdd:	5d                   	pop    %rbp
   140001bde:	c3                   	ret    

0000000140001bdf <__dyn_tls_dtor>:
   140001bdf:	55                   	push   %rbp
   140001be0:	48 89 e5             	mov    %rsp,%rbp
   140001be3:	48 83 ec 20          	sub    $0x20,%rsp
   140001be7:	48 89 4d 10          	mov    %rcx,0x10(%rbp)
   140001beb:	89 55 18             	mov    %edx,0x18(%rbp)
   140001bee:	4c 89 45 20          	mov    %r8,0x20(%rbp)
   140001bf2:	83 7d 18 03          	cmpl   $0x3,0x18(%rbp)
   140001bf6:	74 0d                	je     140001c05 <__dyn_tls_dtor+0x26>
   140001bf8:	83 7d 18 00          	cmpl   $0x0,0x18(%rbp)
   140001bfc:	74 07                	je     140001c05 <__dyn_tls_dtor+0x26>
   140001bfe:	b8 01 00 00 00       	mov    $0x1,%eax
   140001c03:	eb 1a                	jmp    140001c1f <__dyn_tls_dtor+0x40>
   140001c05:	48 8b 55 20          	mov    0x20(%rbp),%rdx
   140001c09:	8b 45 18             	mov    0x18(%rbp),%eax
   140001c0c:	49 89 d0             	mov    %rdx,%r8
   140001c0f:	89 c2                	mov    %eax,%edx
   140001c11:	48 8b 4d 10          	mov    0x10(%rbp),%rcx
   140001c15:	e8 17 0e 00 00       	call   140002a31 <__mingw_TLScallback>
   140001c1a:	b8 01 00 00 00       	mov    $0x1,%eax
   140001c1f:	48 83 c4 20          	add    $0x20,%rsp
   140001c23:	5d                   	pop    %rbp
   140001c24:	c3                   	ret    
   140001c25:	90                   	nop
   140001c26:	90                   	nop
   140001c27:	90                   	nop
   140001c28:	90                   	nop
   140001c29:	90                   	nop
   140001c2a:	90                   	nop
   140001c2b:	90                   	nop
   140001c2c:	90                   	nop
   140001c2d:	90                   	nop
   140001c2e:	90                   	nop
   140001c2f:	90                   	nop

0000000140001c30 <_matherr>:
   140001c30:	55                   	push   %rbp
   140001c31:	53                   	push   %rbx
   140001c32:	48 81 ec 88 00 00 00 	sub    $0x88,%rsp
   140001c39:	48 8d 6c 24 50       	lea    0x50(%rsp),%rbp
   140001c3e:	0f 29 75 00          	movaps %xmm6,0x0(%rbp)
   140001c42:	0f 29 7d 10          	movaps %xmm7,0x10(%rbp)
   140001c46:	44 0f 29 45 20       	movaps %xmm8,0x20(%rbp)
   140001c4b:	48 89 4d 50          	mov    %rcx,0x50(%rbp)
   140001c4f:	48 8b 45 50          	mov    0x50(%rbp),%rax
   140001c53:	8b 00                	mov    (%rax),%eax
   140001c55:	83 f8 06             	cmp    $0x6,%eax
   140001c58:	77 70                	ja     140001cca <_matherr+0x9a>
   140001c5a:	89 c0                	mov    %eax,%eax
   140001c5c:	48 8d 14 85 00 00 00 	lea    0x0(,%rax,4),%rdx
   140001c63:	00 
   140001c64:	48 8d 05 99 95 00 00 	lea    0x9599(%rip),%rax        # 14000b204 <.rdata+0x124>
   140001c6b:	8b 04 02             	mov    (%rdx,%rax,1),%eax
   140001c6e:	48 98                	cltq   
   140001c70:	48 8d 15 8d 95 00 00 	lea    0x958d(%rip),%rdx        # 14000b204 <.rdata+0x124>
   140001c77:	48 01 d0             	add    %rdx,%rax
   140001c7a:	ff e0                	jmp    *%rax
   140001c7c:	48 8d 05 5d 94 00 00 	lea    0x945d(%rip),%rax        # 14000b0e0 <.rdata>
   140001c83:	48 89 45 f8          	mov    %rax,-0x8(%rbp)
   140001c87:	eb 4d                	jmp    140001cd6 <_matherr+0xa6>
   140001c89:	48 8d 05 6f 94 00 00 	lea    0x946f(%rip),%rax        # 14000b0ff <.rdata+0x1f>
   140001c90:	48 89 45 f8          	mov    %rax,-0x8(%rbp)
   140001c94:	eb 40                	jmp    140001cd6 <_matherr+0xa6>
   140001c96:	48 8d 05 83 94 00 00 	lea    0x9483(%rip),%rax        # 14000b120 <.rdata+0x40>
   140001c9d:	48 89 45 f8          	mov    %rax,-0x8(%rbp)
   140001ca1:	eb 33                	jmp    140001cd6 <_matherr+0xa6>
   140001ca3:	48 8d 05 96 94 00 00 	lea    0x9496(%rip),%rax        # 14000b140 <.rdata+0x60>
   140001caa:	48 89 45 f8          	mov    %rax,-0x8(%rbp)
   140001cae:	eb 26                	jmp    140001cd6 <_matherr+0xa6>
   140001cb0:	48 8d 05 b1 94 00 00 	lea    0x94b1(%rip),%rax        # 14000b168 <.rdata+0x88>
   140001cb7:	48 89 45 f8          	mov    %rax,-0x8(%rbp)
   140001cbb:	eb 19                	jmp    140001cd6 <_matherr+0xa6>
   140001cbd:	48 8d 05 cc 94 00 00 	lea    0x94cc(%rip),%rax        # 14000b190 <.rdata+0xb0>
   140001cc4:	48 89 45 f8          	mov    %rax,-0x8(%rbp)
   140001cc8:	eb 0c                	jmp    140001cd6 <_matherr+0xa6>
   140001cca:	48 8d 05 f5 94 00 00 	lea    0x94f5(%rip),%rax        # 14000b1c6 <.rdata+0xe6>
   140001cd1:	48 89 45 f8          	mov    %rax,-0x8(%rbp)
   140001cd5:	90                   	nop
   140001cd6:	48 8b 45 50          	mov    0x50(%rbp),%rax
   140001cda:	f2 44 0f 10 40 20    	movsd  0x20(%rax),%xmm8
   140001ce0:	48 8b 45 50          	mov    0x50(%rbp),%rax
   140001ce4:	f2 0f 10 78 18       	movsd  0x18(%rax),%xmm7
   140001ce9:	48 8b 45 50          	mov    0x50(%rbp),%rax
   140001ced:	f2 0f 10 70 10       	movsd  0x10(%rax),%xmm6
   140001cf2:	48 8b 45 50          	mov    0x50(%rbp),%rax
   140001cf6:	48 8b 58 08          	mov    0x8(%rax),%rbx
   140001cfa:	b9 02 00 00 00       	mov    $0x2,%ecx
   140001cff:	e8 ac 71 00 00       	call   140008eb0 <__acrt_iob_func>
   140001d04:	48 89 c1             	mov    %rax,%rcx
   140001d07:	48 8b 45 f8          	mov    -0x8(%rbp),%rax
   140001d0b:	f2 44 0f 11 44 24 30 	movsd  %xmm8,0x30(%rsp)
   140001d12:	f2 0f 11 7c 24 28    	movsd  %xmm7,0x28(%rsp)
   140001d18:	f2 0f 11 74 24 20    	movsd  %xmm6,0x20(%rsp)
   140001d1e:	49 89 d9             	mov    %rbx,%r9
   140001d21:	49 89 c0             	mov    %rax,%r8
   140001d24:	48 8d 05 ad 94 00 00 	lea    0x94ad(%rip),%rax        # 14000b1d8 <.rdata+0xf8>
   140001d2b:	48 89 c2             	mov    %rax,%rdx
   140001d2e:	e8 65 6a 00 00       	call   140008798 <fprintf>
   140001d33:	b8 00 00 00 00       	mov    $0x0,%eax
   140001d38:	0f 28 75 00          	movaps 0x0(%rbp),%xmm6
   140001d3c:	0f 28 7d 10          	movaps 0x10(%rbp),%xmm7
   140001d40:	44 0f 28 45 20       	movaps 0x20(%rbp),%xmm8
   140001d45:	48 81 c4 88 00 00 00 	add    $0x88,%rsp
   140001d4c:	5b                   	pop    %rbx
   140001d4d:	5d                   	pop    %rbp
   140001d4e:	c3                   	ret    
   140001d4f:	90                   	nop

0000000140001d50 <_fpreset>:
   140001d50:	55                   	push   %rbp
   140001d51:	48 89 e5             	mov    %rsp,%rbp
   140001d54:	db e3                	fninit 
   140001d56:	90                   	nop
   140001d57:	5d                   	pop    %rbp
   140001d58:	c3                   	ret    
   140001d59:	90                   	nop
   140001d5a:	90                   	nop
   140001d5b:	90                   	nop
   140001d5c:	90                   	nop
   140001d5d:	90                   	nop
   140001d5e:	90                   	nop
   140001d5f:	90                   	nop

0000000140001d60 <__report_error>:
   140001d60:	55                   	push   %rbp
   140001d61:	53                   	push   %rbx
   140001d62:	48 83 ec 38          	sub    $0x38,%rsp
   140001d66:	48 8d 6c 24 30       	lea    0x30(%rsp),%rbp
   140001d6b:	48 89 4d 20          	mov    %rcx,0x20(%rbp)
   140001d6f:	48 89 55 28          	mov    %rdx,0x28(%rbp)
   140001d73:	4c 89 45 30          	mov    %r8,0x30(%rbp)
   140001d77:	4c 89 4d 38          	mov    %r9,0x38(%rbp)
   140001d7b:	48 8d 45 28          	lea    0x28(%rbp),%rax
   140001d7f:	48 89 45 f8          	mov    %rax,-0x8(%rbp)
   140001d83:	b9 02 00 00 00       	mov    $0x2,%ecx
   140001d88:	e8 23 71 00 00       	call   140008eb0 <__acrt_iob_func>
   140001d8d:	49 89 c1             	mov    %rax,%r9
   140001d90:	41 b8 1b 00 00 00    	mov    $0x1b,%r8d
   140001d96:	ba 01 00 00 00       	mov    $0x1,%edx
   140001d9b:	48 8d 05 7e 94 00 00 	lea    0x947e(%rip),%rax        # 14000b220 <.rdata>
   140001da2:	48 89 c1             	mov    %rax,%rcx
   140001da5:	e8 d6 69 00 00       	call   140008780 <fwrite>
   140001daa:	48 8b 5d f8          	mov    -0x8(%rbp),%rbx
   140001dae:	b9 02 00 00 00       	mov    $0x2,%ecx
   140001db3:	e8 f8 70 00 00       	call   140008eb0 <__acrt_iob_func>
   140001db8:	49 89 d8             	mov    %rbx,%r8
   140001dbb:	48 8b 55 20          	mov    0x20(%rbp),%rdx
   140001dbf:	48 89 c1             	mov    %rax,%rcx
   140001dc2:	e8 71 69 00 00       	call   140008738 <vfprintf>
   140001dc7:	e8 ec 69 00 00       	call   1400087b8 <abort>
   140001dcc:	90                   	nop

0000000140001dcd <mark_section_writable>:
   140001dcd:	55                   	push   %rbp
   140001dce:	48 89 e5             	mov    %rsp,%rbp
   140001dd1:	48 83 ec 60          	sub    $0x60,%rsp
   140001dd5:	48 89 4d 10          	mov    %rcx,0x10(%rbp)
   140001dd9:	c7 45 fc 00 00 00 00 	movl   $0x0,-0x4(%rbp)
   140001de0:	e9 82 00 00 00       	jmp    140001e67 <mark_section_writable+0x9a>
   140001de5:	48 8b 0d 24 e3 00 00 	mov    0xe324(%rip),%rcx        # 140010110 <the_secs>
   140001dec:	8b 45 fc             	mov    -0x4(%rbp),%eax
   140001def:	48 63 d0             	movslq %eax,%rdx
   140001df2:	48 89 d0             	mov    %rdx,%rax
   140001df5:	48 c1 e0 02          	shl    $0x2,%rax
   140001df9:	48 01 d0             	add    %rdx,%rax
   140001dfc:	48 c1 e0 03          	shl    $0x3,%rax
   140001e00:	48 01 c8             	add    %rcx,%rax
   140001e03:	48 8b 40 18          	mov    0x18(%rax),%rax
   140001e07:	48 39 45 10          	cmp    %rax,0x10(%rbp)
   140001e0b:	72 56                	jb     140001e63 <mark_section_writable+0x96>
   140001e0d:	48 8b 0d fc e2 00 00 	mov    0xe2fc(%rip),%rcx        # 140010110 <the_secs>
   140001e14:	8b 45 fc             	mov    -0x4(%rbp),%eax
   140001e17:	48 63 d0             	movslq %eax,%rdx
   140001e1a:	48 89 d0             	mov    %rdx,%rax
   140001e1d:	48 c1 e0 02          	shl    $0x2,%rax
   140001e21:	48 01 d0             	add    %rdx,%rax
   140001e24:	48 c1 e0 03          	shl    $0x3,%rax
   140001e28:	48 01 c8             	add    %rcx,%rax
   140001e2b:	48 8b 48 18          	mov    0x18(%rax),%rcx
   140001e2f:	4c 8b 05 da e2 00 00 	mov    0xe2da(%rip),%r8        # 140010110 <the_secs>
   140001e36:	8b 45 fc             	mov    -0x4(%rbp),%eax
   140001e39:	48 63 d0             	movslq %eax,%rdx
   140001e3c:	48 89 d0             	mov    %rdx,%rax
   140001e3f:	48 c1 e0 02          	shl    $0x2,%rax
   140001e43:	48 01 d0             	add    %rdx,%rax
   140001e46:	48 c1 e0 03          	shl    $0x3,%rax
   140001e4a:	4c 01 c0             	add    %r8,%rax
   140001e4d:	48 8b 40 20          	mov    0x20(%rax),%rax
   140001e51:	8b 40 08             	mov    0x8(%rax),%eax
   140001e54:	89 c0                	mov    %eax,%eax
   140001e56:	48 01 c8             	add    %rcx,%rax
   140001e59:	48 39 45 10          	cmp    %rax,0x10(%rbp)
   140001e5d:	0f 82 3c 02 00 00    	jb     14000209f <mark_section_writable+0x2d2>
   140001e63:	83 45 fc 01          	addl   $0x1,-0x4(%rbp)
   140001e67:	8b 05 ab e2 00 00    	mov    0xe2ab(%rip),%eax        # 140010118 <maxSections>
   140001e6d:	39 45 fc             	cmp    %eax,-0x4(%rbp)
   140001e70:	0f 8c 6f ff ff ff    	jl     140001de5 <mark_section_writable+0x18>
   140001e76:	48 8b 4d 10          	mov    0x10(%rbp),%rcx
   140001e7a:	e8 89 0e 00 00       	call   140002d08 <__mingw_GetSectionForAddress>
   140001e7f:	48 89 45 f0          	mov    %rax,-0x10(%rbp)
   140001e83:	48 83 7d f0 00       	cmpq   $0x0,-0x10(%rbp)
   140001e88:	75 13                	jne    140001e9d <mark_section_writable+0xd0>
   140001e8a:	48 8b 55 10          	mov    0x10(%rbp),%rdx
   140001e8e:	48 8d 05 ab 93 00 00 	lea    0x93ab(%rip),%rax        # 14000b240 <.rdata+0x20>
   140001e95:	48 89 c1             	mov    %rax,%rcx
   140001e98:	e8 c3 fe ff ff       	call   140001d60 <__report_error>
   140001e9d:	48 8b 0d 6c e2 00 00 	mov    0xe26c(%rip),%rcx        # 140010110 <the_secs>
   140001ea4:	8b 45 fc             	mov    -0x4(%rbp),%eax
   140001ea7:	48 63 d0             	movslq %eax,%rdx
   140001eaa:	48 89 d0             	mov    %rdx,%rax
   140001ead:	48 c1 e0 02          	shl    $0x2,%rax
   140001eb1:	48 01 d0             	add    %rdx,%rax
   140001eb4:	48 c1 e0 03          	shl    $0x3,%rax
   140001eb8:	48 8d 14 01          	lea    (%rcx,%rax,1),%rdx
   140001ebc:	48 8b 45 f0          	mov    -0x10(%rbp),%rax
   140001ec0:	48 89 42 20          	mov    %rax,0x20(%rdx)
   140001ec4:	48 8b 0d 45 e2 00 00 	mov    0xe245(%rip),%rcx        # 140010110 <the_secs>
   140001ecb:	8b 45 fc             	mov    -0x4(%rbp),%eax
   140001ece:	48 63 d0             	movslq %eax,%rdx
   140001ed1:	48 89 d0             	mov    %rdx,%rax
   140001ed4:	48 c1 e0 02          	shl    $0x2,%rax
   140001ed8:	48 01 d0             	add    %rdx,%rax
   140001edb:	48 c1 e0 03          	shl    $0x3,%rax
   140001edf:	48 01 c8             	add    %rcx,%rax
   140001ee2:	c7 00 00 00 00 00    	movl   $0x0,(%rax)
   140001ee8:	e8 67 0f 00 00       	call   140002e54 <_GetPEImageBase>
   140001eed:	48 89 c1             	mov    %rax,%rcx
   140001ef0:	48 8b 45 f0          	mov    -0x10(%rbp),%rax
   140001ef4:	8b 40 0c             	mov    0xc(%rax),%eax
   140001ef7:	41 89 c1             	mov    %eax,%r9d
   140001efa:	4c 8b 05 0f e2 00 00 	mov    0xe20f(%rip),%r8        # 140010110 <the_secs>
   140001f01:	8b 45 fc             	mov    -0x4(%rbp),%eax
   140001f04:	48 63 d0             	movslq %eax,%rdx
   140001f07:	48 89 d0             	mov    %rdx,%rax
   140001f0a:	48 c1 e0 02          	shl    $0x2,%rax
   140001f0e:	48 01 d0             	add    %rdx,%rax
   140001f11:	48 c1 e0 03          	shl    $0x3,%rax
   140001f15:	4c 01 c0             	add    %r8,%rax
   140001f18:	4a 8d 14 09          	lea    (%rcx,%r9,1),%rdx
   140001f1c:	48 89 50 18          	mov    %rdx,0x18(%rax)
   140001f20:	48 8b 0d e9 e1 00 00 	mov    0xe1e9(%rip),%rcx        # 140010110 <the_secs>
   140001f27:	8b 45 fc             	mov    -0x4(%rbp),%eax
   140001f2a:	48 63 d0             	movslq %eax,%rdx
   140001f2d:	48 89 d0             	mov    %rdx,%rax
   140001f30:	48 c1 e0 02          	shl    $0x2,%rax
   140001f34:	48 01 d0             	add    %rdx,%rax
   140001f37:	48 c1 e0 03          	shl    $0x3,%rax
   140001f3b:	48 01 c8             	add    %rcx,%rax
   140001f3e:	48 8b 40 18          	mov    0x18(%rax),%rax
   140001f42:	48 8d 55 c0          	lea    -0x40(%rbp),%rdx
   140001f46:	41 b8 30 00 00 00    	mov    $0x30,%r8d
   140001f4c:	48 89 c1             	mov    %rax,%rcx
   140001f4f:	48 8b 05 8e f4 00 00 	mov    0xf48e(%rip),%rax        # 1400113e4 <__imp_VirtualQuery>
   140001f56:	ff d0                	call   *%rax
   140001f58:	48 85 c0             	test   %rax,%rax
   140001f5b:	75 3d                	jne    140001f9a <mark_section_writable+0x1cd>
   140001f5d:	48 8b 0d ac e1 00 00 	mov    0xe1ac(%rip),%rcx        # 140010110 <the_secs>
   140001f64:	8b 45 fc             	mov    -0x4(%rbp),%eax
   140001f67:	48 63 d0             	movslq %eax,%rdx
   140001f6a:	48 89 d0             	mov    %rdx,%rax
   140001f6d:	48 c1 e0 02          	shl    $0x2,%rax
   140001f71:	48 01 d0             	add    %rdx,%rax
   140001f74:	48 c1 e0 03          	shl    $0x3,%rax
   140001f78:	48 01 c8             	add    %rcx,%rax
   140001f7b:	48 8b 50 18          	mov    0x18(%rax),%rdx
   140001f7f:	48 8b 45 f0          	mov    -0x10(%rbp),%rax
   140001f83:	8b 40 08             	mov    0x8(%rax),%eax
   140001f86:	49 89 d0             	mov    %rdx,%r8
   140001f89:	89 c2                	mov    %eax,%edx
   140001f8b:	48 8d 05 ce 92 00 00 	lea    0x92ce(%rip),%rax        # 14000b260 <.rdata+0x40>
   140001f92:	48 89 c1             	mov    %rax,%rcx
   140001f95:	e8 c6 fd ff ff       	call   140001d60 <__report_error>
   140001f9a:	8b 45 e4             	mov    -0x1c(%rbp),%eax
   140001f9d:	83 f8 40             	cmp    $0x40,%eax
   140001fa0:	0f 84 e8 00 00 00    	je     14000208e <mark_section_writable+0x2c1>
   140001fa6:	8b 45 e4             	mov    -0x1c(%rbp),%eax
   140001fa9:	83 f8 04             	cmp    $0x4,%eax
   140001fac:	0f 84 dc 00 00 00    	je     14000208e <mark_section_writable+0x2c1>
   140001fb2:	8b 45 e4             	mov    -0x1c(%rbp),%eax
   140001fb5:	3d 80 00 00 00       	cmp    $0x80,%eax
   140001fba:	0f 84 ce 00 00 00    	je     14000208e <mark_section_writable+0x2c1>
   140001fc0:	8b 45 e4             	mov    -0x1c(%rbp),%eax
   140001fc3:	83 f8 08             	cmp    $0x8,%eax
   140001fc6:	0f 84 c2 00 00 00    	je     14000208e <mark_section_writable+0x2c1>
   140001fcc:	8b 45 e4             	mov    -0x1c(%rbp),%eax
   140001fcf:	83 f8 02             	cmp    $0x2,%eax
   140001fd2:	75 09                	jne    140001fdd <mark_section_writable+0x210>
   140001fd4:	c7 45 f8 04 00 00 00 	movl   $0x4,-0x8(%rbp)
   140001fdb:	eb 07                	jmp    140001fe4 <mark_section_writable+0x217>
   140001fdd:	c7 45 f8 40 00 00 00 	movl   $0x40,-0x8(%rbp)
   140001fe4:	48 8b 0d 25 e1 00 00 	mov    0xe125(%rip),%rcx        # 140010110 <the_secs>
   140001feb:	8b 45 fc             	mov    -0x4(%rbp),%eax
   140001fee:	48 63 d0             	movslq %eax,%rdx
   140001ff1:	48 89 d0             	mov    %rdx,%rax
   140001ff4:	48 c1 e0 02          	shl    $0x2,%rax
   140001ff8:	48 01 d0             	add    %rdx,%rax
   140001ffb:	48 c1 e0 03          	shl    $0x3,%rax
   140001fff:	48 8d 14 01          	lea    (%rcx,%rax,1),%rdx
   140002003:	48 8b 45 c0          	mov    -0x40(%rbp),%rax
   140002007:	48 89 42 08          	mov    %rax,0x8(%rdx)
   14000200b:	48 8b 0d fe e0 00 00 	mov    0xe0fe(%rip),%rcx        # 140010110 <the_secs>
   140002012:	8b 45 fc             	mov    -0x4(%rbp),%eax
   140002015:	48 63 d0             	movslq %eax,%rdx
   140002018:	48 89 d0             	mov    %rdx,%rax
   14000201b:	48 c1 e0 02          	shl    $0x2,%rax
   14000201f:	48 01 d0             	add    %rdx,%rax
   140002022:	48 c1 e0 03          	shl    $0x3,%rax
   140002026:	48 8d 14 01          	lea    (%rcx,%rax,1),%rdx
   14000202a:	48 8b 45 d8          	mov    -0x28(%rbp),%rax
   14000202e:	48 89 42 10          	mov    %rax,0x10(%rdx)
   140002032:	48 8b 0d d7 e0 00 00 	mov    0xe0d7(%rip),%rcx        # 140010110 <the_secs>
   140002039:	8b 45 fc             	mov    -0x4(%rbp),%eax
   14000203c:	48 63 d0             	movslq %eax,%rdx
   14000203f:	48 89 d0             	mov    %rdx,%rax
   140002042:	48 c1 e0 02          	shl    $0x2,%rax
   140002046:	48 01 d0             	add    %rdx,%rax
   140002049:	48 c1 e0 03          	shl    $0x3,%rax
   14000204d:	48 01 c8             	add    %rcx,%rax
   140002050:	49 89 c0             	mov    %rax,%r8
   140002053:	48 8b 55 d8          	mov    -0x28(%rbp),%rdx
   140002057:	48 8b 45 c0          	mov    -0x40(%rbp),%rax
   14000205b:	8b 4d f8             	mov    -0x8(%rbp),%ecx
   14000205e:	4d 89 c1             	mov    %r8,%r9
   140002061:	41 89 c8             	mov    %ecx,%r8d
   140002064:	48 89 c1             	mov    %rax,%rcx
   140002067:	48 8b 05 6e f3 00 00 	mov    0xf36e(%rip),%rax        # 1400113dc <__imp_VirtualProtect>
   14000206e:	ff d0                	call   *%rax
   140002070:	85 c0                	test   %eax,%eax
   140002072:	75 1a                	jne    14000208e <mark_section_writable+0x2c1>
   140002074:	48 8b 05 01 f3 00 00 	mov    0xf301(%rip),%rax        # 14001137c <__imp_GetLastError>
   14000207b:	ff d0                	call   *%rax
   14000207d:	89 c2                	mov    %eax,%edx
   14000207f:	48 8d 05 12 92 00 00 	lea    0x9212(%rip),%rax        # 14000b298 <.rdata+0x78>
   140002086:	48 89 c1             	mov    %rax,%rcx
   140002089:	e8 d2 fc ff ff       	call   140001d60 <__report_error>
   14000208e:	8b 05 84 e0 00 00    	mov    0xe084(%rip),%eax        # 140010118 <maxSections>
   140002094:	83 c0 01             	add    $0x1,%eax
   140002097:	89 05 7b e0 00 00    	mov    %eax,0xe07b(%rip)        # 140010118 <maxSections>
   14000209d:	eb 01                	jmp    1400020a0 <mark_section_writable+0x2d3>
   14000209f:	90                   	nop
   1400020a0:	48 83 c4 60          	add    $0x60,%rsp
   1400020a4:	5d                   	pop    %rbp
   1400020a5:	c3                   	ret    

00000001400020a6 <restore_modified_sections>:
   1400020a6:	55                   	push   %rbp
   1400020a7:	48 89 e5             	mov    %rsp,%rbp
   1400020aa:	48 83 ec 30          	sub    $0x30,%rsp
   1400020ae:	c7 45 fc 00 00 00 00 	movl   $0x0,-0x4(%rbp)
   1400020b5:	e9 a3 00 00 00       	jmp    14000215d <restore_modified_sections+0xb7>
   1400020ba:	48 8b 0d 4f e0 00 00 	mov    0xe04f(%rip),%rcx        # 140010110 <the_secs>
   1400020c1:	8b 45 fc             	mov    -0x4(%rbp),%eax
   1400020c4:	48 63 d0             	movslq %eax,%rdx
   1400020c7:	48 89 d0             	mov    %rdx,%rax
   1400020ca:	48 c1 e0 02          	shl    $0x2,%rax
   1400020ce:	48 01 d0             	add    %rdx,%rax
   1400020d1:	48 c1 e0 03          	shl    $0x3,%rax
   1400020d5:	48 01 c8             	add    %rcx,%rax
   1400020d8:	8b 00                	mov    (%rax),%eax
   1400020da:	85 c0                	test   %eax,%eax
   1400020dc:	74 7a                	je     140002158 <restore_modified_sections+0xb2>
   1400020de:	48 8b 0d 2b e0 00 00 	mov    0xe02b(%rip),%rcx        # 140010110 <the_secs>
   1400020e5:	8b 45 fc             	mov    -0x4(%rbp),%eax
   1400020e8:	48 63 d0             	movslq %eax,%rdx
   1400020eb:	48 89 d0             	mov    %rdx,%rax
   1400020ee:	48 c1 e0 02          	shl    $0x2,%rax
   1400020f2:	48 01 d0             	add    %rdx,%rax
   1400020f5:	48 c1 e0 03          	shl    $0x3,%rax
   1400020f9:	48 01 c8             	add    %rcx,%rax
   1400020fc:	44 8b 00             	mov    (%rax),%r8d
   1400020ff:	48 8b 0d 0a e0 00 00 	mov    0xe00a(%rip),%rcx        # 140010110 <the_secs>
   140002106:	8b 45 fc             	mov    -0x4(%rbp),%eax
   140002109:	48 63 d0             	movslq %eax,%rdx
   14000210c:	48 89 d0             	mov    %rdx,%rax
   14000210f:	48 c1 e0 02          	shl    $0x2,%rax
   140002113:	48 01 d0             	add    %rdx,%rax
   140002116:	48 c1 e0 03          	shl    $0x3,%rax
   14000211a:	48 01 c8             	add    %rcx,%rax
   14000211d:	48 8b 50 10          	mov    0x10(%rax),%rdx
   140002121:	4c 8b 0d e8 df 00 00 	mov    0xdfe8(%rip),%r9        # 140010110 <the_secs>
   140002128:	8b 45 fc             	mov    -0x4(%rbp),%eax
   14000212b:	48 63 c8             	movslq %eax,%rcx
   14000212e:	48 89 c8             	mov    %rcx,%rax
   140002131:	48 c1 e0 02          	shl    $0x2,%rax
   140002135:	48 01 c8             	add    %rcx,%rax
   140002138:	48 c1 e0 03          	shl    $0x3,%rax
   14000213c:	4c 01 c8             	add    %r9,%rax
   14000213f:	48 8b 40 08          	mov    0x8(%rax),%rax
   140002143:	48 8d 4d f8          	lea    -0x8(%rbp),%rcx
   140002147:	49 89 c9             	mov    %rcx,%r9
   14000214a:	48 89 c1             	mov    %rax,%rcx
   14000214d:	48 8b 05 88 f2 00 00 	mov    0xf288(%rip),%rax        # 1400113dc <__imp_VirtualProtect>
   140002154:	ff d0                	call   *%rax
   140002156:	eb 01                	jmp    140002159 <restore_modified_sections+0xb3>
   140002158:	90                   	nop
   140002159:	83 45 fc 01          	addl   $0x1,-0x4(%rbp)
   14000215d:	8b 05 b5 df 00 00    	mov    0xdfb5(%rip),%eax        # 140010118 <maxSections>
   140002163:	39 45 fc             	cmp    %eax,-0x4(%rbp)
   140002166:	0f 8c 4e ff ff ff    	jl     1400020ba <restore_modified_sections+0x14>
   14000216c:	90                   	nop
   14000216d:	90                   	nop
   14000216e:	48 83 c4 30          	add    $0x30,%rsp
   140002172:	5d                   	pop    %rbp
   140002173:	c3                   	ret    

0000000140002174 <__write_memory>:
   140002174:	55                   	push   %rbp
   140002175:	48 89 e5             	mov    %rsp,%rbp
   140002178:	48 83 ec 20          	sub    $0x20,%rsp
   14000217c:	48 89 4d 10          	mov    %rcx,0x10(%rbp)
   140002180:	48 89 55 18          	mov    %rdx,0x18(%rbp)
   140002184:	4c 89 45 20          	mov    %r8,0x20(%rbp)
   140002188:	48 83 7d 20 00       	cmpq   $0x0,0x20(%rbp)
   14000218d:	74 22                	je     1400021b1 <__write_memory+0x3d>
   14000218f:	48 8b 4d 10          	mov    0x10(%rbp),%rcx
   140002193:	e8 35 fc ff ff       	call   140001dcd <mark_section_writable>
   140002198:	48 8b 55 20          	mov    0x20(%rbp),%rdx
   14000219c:	48 8b 45 18          	mov    0x18(%rbp),%rax
   1400021a0:	49 89 d0             	mov    %rdx,%r8
   1400021a3:	48 89 c2             	mov    %rax,%rdx
   1400021a6:	48 8b 4d 10          	mov    0x10(%rbp),%rcx
   1400021aa:	e8 b9 65 00 00       	call   140008768 <memcpy>
   1400021af:	eb 01                	jmp    1400021b2 <__write_memory+0x3e>
   1400021b1:	90                   	nop
   1400021b2:	48 83 c4 20          	add    $0x20,%rsp
   1400021b6:	5d                   	pop    %rbp
   1400021b7:	c3                   	ret    

00000001400021b8 <do_pseudo_reloc>:
   1400021b8:	55                   	push   %rbp
   1400021b9:	48 89 e5             	mov    %rsp,%rbp
   1400021bc:	48 83 ec 60          	sub    $0x60,%rsp
   1400021c0:	48 89 4d 10          	mov    %rcx,0x10(%rbp)
   1400021c4:	48 89 55 18          	mov    %rdx,0x18(%rbp)
   1400021c8:	4c 89 45 20          	mov    %r8,0x20(%rbp)
   1400021cc:	48 8b 45 18          	mov    0x18(%rbp),%rax
   1400021d0:	48 2b 45 10          	sub    0x10(%rbp),%rax
   1400021d4:	48 89 45 e0          	mov    %rax,-0x20(%rbp)
   1400021d8:	48 8b 45 10          	mov    0x10(%rbp),%rax
   1400021dc:	48 89 45 f8          	mov    %rax,-0x8(%rbp)
   1400021e0:	48 83 7d e0 07       	cmpq   $0x7,-0x20(%rbp)
   1400021e5:	0f 8e cb 02 00 00    	jle    1400024b6 <do_pseudo_reloc+0x2fe>
   1400021eb:	48 83 7d e0 0b       	cmpq   $0xb,-0x20(%rbp)
   1400021f0:	7e 25                	jle    140002217 <do_pseudo_reloc+0x5f>
   1400021f2:	48 8b 45 f8          	mov    -0x8(%rbp),%rax
   1400021f6:	8b 00                	mov    (%rax),%eax
   1400021f8:	85 c0                	test   %eax,%eax
   1400021fa:	75 1b                	jne    140002217 <do_pseudo_reloc+0x5f>
   1400021fc:	48 8b 45 f8          	mov    -0x8(%rbp),%rax
   140002200:	8b 40 04             	mov    0x4(%rax),%eax
   140002203:	85 c0                	test   %eax,%eax
   140002205:	75 10                	jne    140002217 <do_pseudo_reloc+0x5f>
   140002207:	48 8b 45 f8          	mov    -0x8(%rbp),%rax
   14000220b:	8b 40 08             	mov    0x8(%rax),%eax
   14000220e:	85 c0                	test   %eax,%eax
   140002210:	75 05                	jne    140002217 <do_pseudo_reloc+0x5f>
   140002212:	48 83 45 f8 0c       	addq   $0xc,-0x8(%rbp)
   140002217:	48 8b 45 f8          	mov    -0x8(%rbp),%rax
   14000221b:	8b 00                	mov    (%rax),%eax
   14000221d:	85 c0                	test   %eax,%eax
   14000221f:	75 0b                	jne    14000222c <do_pseudo_reloc+0x74>
   140002221:	48 8b 45 f8          	mov    -0x8(%rbp),%rax
   140002225:	8b 40 04             	mov    0x4(%rax),%eax
   140002228:	85 c0                	test   %eax,%eax
   14000222a:	74 59                	je     140002285 <do_pseudo_reloc+0xcd>
   14000222c:	48 8b 45 f8          	mov    -0x8(%rbp),%rax
   140002230:	48 89 45 e8          	mov    %rax,-0x18(%rbp)
   140002234:	eb 40                	jmp    140002276 <do_pseudo_reloc+0xbe>
   140002236:	48 8b 45 e8          	mov    -0x18(%rbp),%rax
   14000223a:	8b 40 04             	mov    0x4(%rax),%eax
   14000223d:	89 c2                	mov    %eax,%edx
   14000223f:	48 8b 45 20          	mov    0x20(%rbp),%rax
   140002243:	48 01 d0             	add    %rdx,%rax
   140002246:	48 89 45 e0          	mov    %rax,-0x20(%rbp)
   14000224a:	48 8b 45 e0          	mov    -0x20(%rbp),%rax
   14000224e:	8b 10                	mov    (%rax),%edx
   140002250:	48 8b 45 e8          	mov    -0x18(%rbp),%rax
   140002254:	8b 00                	mov    (%rax),%eax
   140002256:	01 d0                	add    %edx,%eax
   140002258:	89 45 cc             	mov    %eax,-0x34(%rbp)
   14000225b:	48 8b 45 e0          	mov    -0x20(%rbp),%rax
   14000225f:	48 8d 55 cc          	lea    -0x34(%rbp),%rdx
   140002263:	41 b8 04 00 00 00    	mov    $0x4,%r8d
   140002269:	48 89 c1             	mov    %rax,%rcx
   14000226c:	e8 03 ff ff ff       	call   140002174 <__write_memory>
   140002271:	48 83 45 e8 08       	addq   $0x8,-0x18(%rbp)
   140002276:	48 8b 45 e8          	mov    -0x18(%rbp),%rax
   14000227a:	48 3b 45 18          	cmp    0x18(%rbp),%rax
   14000227e:	72 b6                	jb     140002236 <do_pseudo_reloc+0x7e>
   140002280:	e9 32 02 00 00       	jmp    1400024b7 <do_pseudo_reloc+0x2ff>
   140002285:	48 8b 45 f8          	mov    -0x8(%rbp),%rax
   140002289:	8b 40 08             	mov    0x8(%rax),%eax
   14000228c:	83 f8 01             	cmp    $0x1,%eax
   14000228f:	74 18                	je     1400022a9 <do_pseudo_reloc+0xf1>
   140002291:	48 8b 45 f8          	mov    -0x8(%rbp),%rax
   140002295:	8b 40 08             	mov    0x8(%rax),%eax
   140002298:	89 c2                	mov    %eax,%edx
   14000229a:	48 8d 05 1f 90 00 00 	lea    0x901f(%rip),%rax        # 14000b2c0 <.rdata+0xa0>
   1400022a1:	48 89 c1             	mov    %rax,%rcx
   1400022a4:	e8 b7 fa ff ff       	call   140001d60 <__report_error>
   1400022a9:	48 8b 45 f8          	mov    -0x8(%rbp),%rax
   1400022ad:	48 83 c0 0c          	add    $0xc,%rax
   1400022b1:	48 89 45 f0          	mov    %rax,-0x10(%rbp)
   1400022b5:	e9 ec 01 00 00       	jmp    1400024a6 <do_pseudo_reloc+0x2ee>
   1400022ba:	48 8b 45 f0          	mov    -0x10(%rbp),%rax
   1400022be:	8b 40 04             	mov    0x4(%rax),%eax
   1400022c1:	89 c2                	mov    %eax,%edx
   1400022c3:	48 8b 45 20          	mov    0x20(%rbp),%rax
   1400022c7:	48 01 d0             	add    %rdx,%rax
   1400022ca:	48 89 45 e0          	mov    %rax,-0x20(%rbp)
   1400022ce:	48 8b 45 f0          	mov    -0x10(%rbp),%rax
   1400022d2:	8b 00                	mov    (%rax),%eax
   1400022d4:	89 c2                	mov    %eax,%edx
   1400022d6:	48 8b 45 20          	mov    0x20(%rbp),%rax
   1400022da:	48 01 d0             	add    %rdx,%rax
   1400022dd:	48 89 45 d8          	mov    %rax,-0x28(%rbp)
   1400022e1:	48 8b 45 d8          	mov    -0x28(%rbp),%rax
   1400022e5:	48 8b 00             	mov    (%rax),%rax
   1400022e8:	48 89 45 d8          	mov    %rax,-0x28(%rbp)
   1400022ec:	48 8b 45 f0          	mov    -0x10(%rbp),%rax
   1400022f0:	8b 40 08             	mov    0x8(%rax),%eax
   1400022f3:	0f b6 c0             	movzbl %al,%eax
   1400022f6:	83 f8 40             	cmp    $0x40,%eax
   1400022f9:	0f 84 b6 00 00 00    	je     1400023b5 <do_pseudo_reloc+0x1fd>
   1400022ff:	83 f8 40             	cmp    $0x40,%eax
   140002302:	0f 87 ba 00 00 00    	ja     1400023c2 <do_pseudo_reloc+0x20a>
   140002308:	83 f8 20             	cmp    $0x20,%eax
   14000230b:	74 77                	je     140002384 <do_pseudo_reloc+0x1cc>
   14000230d:	83 f8 20             	cmp    $0x20,%eax
   140002310:	0f 87 ac 00 00 00    	ja     1400023c2 <do_pseudo_reloc+0x20a>
   140002316:	83 f8 08             	cmp    $0x8,%eax
   140002319:	74 0a                	je     140002325 <do_pseudo_reloc+0x16d>
   14000231b:	83 f8 10             	cmp    $0x10,%eax
   14000231e:	74 38                	je     140002358 <do_pseudo_reloc+0x1a0>
   140002320:	e9 9d 00 00 00       	jmp    1400023c2 <do_pseudo_reloc+0x20a>
   140002325:	48 8b 45 e0          	mov    -0x20(%rbp),%rax
   140002329:	0f b6 00             	movzbl (%rax),%eax
   14000232c:	0f b6 c0             	movzbl %al,%eax
   14000232f:	48 89 45 d0          	mov    %rax,-0x30(%rbp)
   140002333:	48 8b 45 d0          	mov    -0x30(%rbp),%rax
   140002337:	25 80 00 00 00       	and    $0x80,%eax
   14000233c:	48 85 c0             	test   %rax,%rax
   14000233f:	0f 84 a0 00 00 00    	je     1400023e5 <do_pseudo_reloc+0x22d>
   140002345:	48 8b 45 d0          	mov    -0x30(%rbp),%rax
   140002349:	48 0d 00 ff ff ff    	or     $0xffffffffffffff00,%rax
   14000234f:	48 89 45 d0          	mov    %rax,-0x30(%rbp)
   140002353:	e9 8d 00 00 00       	jmp    1400023e5 <do_pseudo_reloc+0x22d>
   140002358:	48 8b 45 e0          	mov    -0x20(%rbp),%rax
   14000235c:	0f b7 00             	movzwl (%rax),%eax
   14000235f:	0f b7 c0             	movzwl %ax,%eax
   140002362:	48 89 45 d0          	mov    %rax,-0x30(%rbp)
   140002366:	48 8b 45 d0          	mov    -0x30(%rbp),%rax
   14000236a:	25 00 80 00 00       	and    $0x8000,%eax
   14000236f:	48 85 c0             	test   %rax,%rax
   140002372:	74 74                	je     1400023e8 <do_pseudo_reloc+0x230>
   140002374:	48 8b 45 d0          	mov    -0x30(%rbp),%rax
   140002378:	48 0d 00 00 ff ff    	or     $0xffffffffffff0000,%rax
   14000237e:	48 89 45 d0          	mov    %rax,-0x30(%rbp)
   140002382:	eb 64                	jmp    1400023e8 <do_pseudo_reloc+0x230>
   140002384:	48 8b 45 e0          	mov    -0x20(%rbp),%rax
   140002388:	8b 00                	mov    (%rax),%eax
   14000238a:	89 c0                	mov    %eax,%eax
   14000238c:	48 89 45 d0          	mov    %rax,-0x30(%rbp)
   140002390:	48 8b 45 d0          	mov    -0x30(%rbp),%rax
   140002394:	25 00 00 00 80       	and    $0x80000000,%eax
   140002399:	48 85 c0             	test   %rax,%rax
   14000239c:	74 4d                	je     1400023eb <do_pseudo_reloc+0x233>
   14000239e:	48 8b 45 d0          	mov    -0x30(%rbp),%rax
   1400023a2:	48 ba 00 00 00 00 ff 	movabs $0xffffffff00000000,%rdx
   1400023a9:	ff ff ff 
   1400023ac:	48 09 d0             	or     %rdx,%rax
   1400023af:	48 89 45 d0          	mov    %rax,-0x30(%rbp)
   1400023b3:	eb 36                	jmp    1400023eb <do_pseudo_reloc+0x233>
   1400023b5:	48 8b 45 e0          	mov    -0x20(%rbp),%rax
   1400023b9:	48 8b 00             	mov    (%rax),%rax
   1400023bc:	48 89 45 d0          	mov    %rax,-0x30(%rbp)
   1400023c0:	eb 2a                	jmp    1400023ec <do_pseudo_reloc+0x234>
   1400023c2:	48 c7 45 d0 00 00 00 	movq   $0x0,-0x30(%rbp)
   1400023c9:	00 
   1400023ca:	48 8b 45 f0          	mov    -0x10(%rbp),%rax
   1400023ce:	8b 40 08             	mov    0x8(%rax),%eax
   1400023d1:	0f b6 c0             	movzbl %al,%eax
   1400023d4:	89 c2                	mov    %eax,%edx
   1400023d6:	48 8d 05 1b 8f 00 00 	lea    0x8f1b(%rip),%rax        # 14000b2f8 <.rdata+0xd8>
   1400023dd:	48 89 c1             	mov    %rax,%rcx
   1400023e0:	e8 7b f9 ff ff       	call   140001d60 <__report_error>
   1400023e5:	90                   	nop
   1400023e6:	eb 04                	jmp    1400023ec <do_pseudo_reloc+0x234>
   1400023e8:	90                   	nop
   1400023e9:	eb 01                	jmp    1400023ec <do_pseudo_reloc+0x234>
   1400023eb:	90                   	nop
   1400023ec:	48 8b 55 d0          	mov    -0x30(%rbp),%rdx
   1400023f0:	48 8b 45 f0          	mov    -0x10(%rbp),%rax
   1400023f4:	8b 00                	mov    (%rax),%eax
   1400023f6:	89 c1                	mov    %eax,%ecx
   1400023f8:	48 8b 45 20          	mov    0x20(%rbp),%rax
   1400023fc:	48 01 c1             	add    %rax,%rcx
   1400023ff:	48 89 d0             	mov    %rdx,%rax
   140002402:	48 29 c8             	sub    %rcx,%rax
   140002405:	48 89 45 d0          	mov    %rax,-0x30(%rbp)
   140002409:	48 8b 55 d0          	mov    -0x30(%rbp),%rdx
   14000240d:	48 8b 45 d8          	mov    -0x28(%rbp),%rax
   140002411:	48 01 d0             	add    %rdx,%rax
   140002414:	48 89 45 d0          	mov    %rax,-0x30(%rbp)
   140002418:	48 8b 45 f0          	mov    -0x10(%rbp),%rax
   14000241c:	8b 40 08             	mov    0x8(%rax),%eax
   14000241f:	0f b6 c0             	movzbl %al,%eax
   140002422:	83 f8 40             	cmp    $0x40,%eax
   140002425:	74 63                	je     14000248a <do_pseudo_reloc+0x2d2>
   140002427:	83 f8 40             	cmp    $0x40,%eax
   14000242a:	77 75                	ja     1400024a1 <do_pseudo_reloc+0x2e9>
   14000242c:	83 f8 20             	cmp    $0x20,%eax
   14000242f:	74 41                	je     140002472 <do_pseudo_reloc+0x2ba>
   140002431:	83 f8 20             	cmp    $0x20,%eax
   140002434:	77 6b                	ja     1400024a1 <do_pseudo_reloc+0x2e9>
   140002436:	83 f8 08             	cmp    $0x8,%eax
   140002439:	74 07                	je     140002442 <do_pseudo_reloc+0x28a>
   14000243b:	83 f8 10             	cmp    $0x10,%eax
   14000243e:	74 1a                	je     14000245a <do_pseudo_reloc+0x2a2>
   140002440:	eb 5f                	jmp    1400024a1 <do_pseudo_reloc+0x2e9>
   140002442:	48 8b 45 e0          	mov    -0x20(%rbp),%rax
   140002446:	48 8d 55 d0          	lea    -0x30(%rbp),%rdx
   14000244a:	41 b8 01 00 00 00    	mov    $0x1,%r8d
   140002450:	48 89 c1             	mov    %rax,%rcx
   140002453:	e8 1c fd ff ff       	call   140002174 <__write_memory>
   140002458:	eb 47                	jmp    1400024a1 <do_pseudo_reloc+0x2e9>
   14000245a:	48 8b 45 e0          	mov    -0x20(%rbp),%rax
   14000245e:	48 8d 55 d0          	lea    -0x30(%rbp),%rdx
   140002462:	41 b8 02 00 00 00    	mov    $0x2,%r8d
   140002468:	48 89 c1             	mov    %rax,%rcx
   14000246b:	e8 04 fd ff ff       	call   140002174 <__write_memory>
   140002470:	eb 2f                	jmp    1400024a1 <do_pseudo_reloc+0x2e9>
   140002472:	48 8b 45 e0          	mov    -0x20(%rbp),%rax
   140002476:	48 8d 55 d0          	lea    -0x30(%rbp),%rdx
   14000247a:	41 b8 04 00 00 00    	mov    $0x4,%r8d
   140002480:	48 89 c1             	mov    %rax,%rcx
   140002483:	e8 ec fc ff ff       	call   140002174 <__write_memory>
   140002488:	eb 17                	jmp    1400024a1 <do_pseudo_reloc+0x2e9>
   14000248a:	48 8b 45 e0          	mov    -0x20(%rbp),%rax
   14000248e:	48 8d 55 d0          	lea    -0x30(%rbp),%rdx
   140002492:	41 b8 08 00 00 00    	mov    $0x8,%r8d
   140002498:	48 89 c1             	mov    %rax,%rcx
   14000249b:	e8 d4 fc ff ff       	call   140002174 <__write_memory>
   1400024a0:	90                   	nop
   1400024a1:	48 83 45 f0 0c       	addq   $0xc,-0x10(%rbp)
   1400024a6:	48 8b 45 f0          	mov    -0x10(%rbp),%rax
   1400024aa:	48 3b 45 18          	cmp    0x18(%rbp),%rax
   1400024ae:	0f 82 06 fe ff ff    	jb     1400022ba <do_pseudo_reloc+0x102>
   1400024b4:	eb 01                	jmp    1400024b7 <do_pseudo_reloc+0x2ff>
   1400024b6:	90                   	nop
   1400024b7:	48 83 c4 60          	add    $0x60,%rsp
   1400024bb:	5d                   	pop    %rbp
   1400024bc:	c3                   	ret    

00000001400024bd <_pei386_runtime_relocator>:
   1400024bd:	55                   	push   %rbp
   1400024be:	48 89 e5             	mov    %rsp,%rbp
   1400024c1:	48 83 ec 30          	sub    $0x30,%rsp
   1400024c5:	8b 05 51 dc 00 00    	mov    0xdc51(%rip),%eax        # 14001011c <was_init.0>
   1400024cb:	85 c0                	test   %eax,%eax
   1400024cd:	0f 85 88 00 00 00    	jne    14000255b <_pei386_runtime_relocator+0x9e>
   1400024d3:	8b 05 43 dc 00 00    	mov    0xdc43(%rip),%eax        # 14001011c <was_init.0>
   1400024d9:	83 c0 01             	add    $0x1,%eax
   1400024dc:	89 05 3a dc 00 00    	mov    %eax,0xdc3a(%rip)        # 14001011c <was_init.0>
   1400024e2:	e8 71 08 00 00       	call   140002d58 <__mingw_GetSectionCount>
   1400024e7:	89 45 fc             	mov    %eax,-0x4(%rbp)
   1400024ea:	8b 45 fc             	mov    -0x4(%rbp),%eax
   1400024ed:	48 63 d0             	movslq %eax,%rdx
   1400024f0:	48 89 d0             	mov    %rdx,%rax
   1400024f3:	48 c1 e0 02          	shl    $0x2,%rax
   1400024f7:	48 01 d0             	add    %rdx,%rax
   1400024fa:	48 c1 e0 03          	shl    $0x3,%rax
   1400024fe:	48 83 c0 0f          	add    $0xf,%rax
   140002502:	48 c1 e8 04          	shr    $0x4,%rax
   140002506:	48 c1 e0 04          	shl    $0x4,%rax
   14000250a:	e8 e1 0a 00 00       	call   140002ff0 <___chkstk_ms>
   14000250f:	48 29 c4             	sub    %rax,%rsp
   140002512:	48 8d 44 24 20       	lea    0x20(%rsp),%rax
   140002517:	48 83 c0 0f          	add    $0xf,%rax
   14000251b:	48 c1 e8 04          	shr    $0x4,%rax
   14000251f:	48 c1 e0 04          	shl    $0x4,%rax
   140002523:	48 89 05 e6 db 00 00 	mov    %rax,0xdbe6(%rip)        # 140010110 <the_secs>
   14000252a:	c7 05 e4 db 00 00 00 	movl   $0x0,0xdbe4(%rip)        # 140010118 <maxSections>
   140002531:	00 00 00 
   140002534:	4c 8b 05 35 92 00 00 	mov    0x9235(%rip),%r8        # 14000b770 <.refptr.__image_base__>
   14000253b:	48 8b 05 de 91 00 00 	mov    0x91de(%rip),%rax        # 14000b720 <.refptr.__RUNTIME_PSEUDO_RELOC_LIST_END__>
   140002542:	48 89 c2             	mov    %rax,%rdx
   140002545:	48 8b 05 e4 91 00 00 	mov    0x91e4(%rip),%rax        # 14000b730 <.refptr.__RUNTIME_PSEUDO_RELOC_LIST__>
   14000254c:	48 89 c1             	mov    %rax,%rcx
   14000254f:	e8 64 fc ff ff       	call   1400021b8 <do_pseudo_reloc>
   140002554:	e8 4d fb ff ff       	call   1400020a6 <restore_modified_sections>
   140002559:	eb 01                	jmp    14000255c <_pei386_runtime_relocator+0x9f>
   14000255b:	90                   	nop
   14000255c:	48 89 ec             	mov    %rbp,%rsp
   14000255f:	5d                   	pop    %rbp
   140002560:	c3                   	ret    
   140002561:	90                   	nop
   140002562:	90                   	nop
   140002563:	90                   	nop
   140002564:	90                   	nop
   140002565:	90                   	nop
   140002566:	90                   	nop
   140002567:	90                   	nop
   140002568:	90                   	nop
   140002569:	90                   	nop
   14000256a:	90                   	nop
   14000256b:	90                   	nop
   14000256c:	90                   	nop
   14000256d:	90                   	nop
   14000256e:	90                   	nop
   14000256f:	90                   	nop

0000000140002570 <__mingw_raise_matherr>:
   140002570:	55                   	push   %rbp
   140002571:	48 89 e5             	mov    %rsp,%rbp
   140002574:	48 83 ec 50          	sub    $0x50,%rsp
   140002578:	89 4d 10             	mov    %ecx,0x10(%rbp)
   14000257b:	48 89 55 18          	mov    %rdx,0x18(%rbp)
   14000257f:	f2 0f 11 55 20       	movsd  %xmm2,0x20(%rbp)
   140002584:	f2 0f 11 5d 28       	movsd  %xmm3,0x28(%rbp)
   140002589:	48 8b 05 90 db 00 00 	mov    0xdb90(%rip),%rax        # 140010120 <stUserMathErr>
   140002590:	48 85 c0             	test   %rax,%rax
   140002593:	74 3e                	je     1400025d3 <__mingw_raise_matherr+0x63>
   140002595:	8b 45 10             	mov    0x10(%rbp),%eax
   140002598:	89 45 d0             	mov    %eax,-0x30(%rbp)
   14000259b:	48 8b 45 18          	mov    0x18(%rbp),%rax
   14000259f:	48 89 45 d8          	mov    %rax,-0x28(%rbp)
   1400025a3:	f2 0f 10 45 20       	movsd  0x20(%rbp),%xmm0
   1400025a8:	f2 0f 11 45 e0       	movsd  %xmm0,-0x20(%rbp)
   1400025ad:	f2 0f 10 45 28       	movsd  0x28(%rbp),%xmm0
   1400025b2:	f2 0f 11 45 e8       	movsd  %xmm0,-0x18(%rbp)
   1400025b7:	f2 0f 10 45 30       	movsd  0x30(%rbp),%xmm0
   1400025bc:	f2 0f 11 45 f0       	movsd  %xmm0,-0x10(%rbp)
   1400025c1:	48 8b 15 58 db 00 00 	mov    0xdb58(%rip),%rdx        # 140010120 <stUserMathErr>
   1400025c8:	48 8d 45 d0          	lea    -0x30(%rbp),%rax
   1400025cc:	48 89 c1             	mov    %rax,%rcx
   1400025cf:	ff d2                	call   *%rdx
   1400025d1:	eb 01                	jmp    1400025d4 <__mingw_raise_matherr+0x64>
   1400025d3:	90                   	nop
   1400025d4:	48 83 c4 50          	add    $0x50,%rsp
   1400025d8:	5d                   	pop    %rbp
   1400025d9:	c3                   	ret    

00000001400025da <__mingw_setusermatherr>:
   1400025da:	55                   	push   %rbp
   1400025db:	48 89 e5             	mov    %rsp,%rbp
   1400025de:	48 83 ec 20          	sub    $0x20,%rsp
   1400025e2:	48 89 4d 10          	mov    %rcx,0x10(%rbp)
   1400025e6:	48 8b 45 10          	mov    0x10(%rbp),%rax
   1400025ea:	48 89 05 2f db 00 00 	mov    %rax,0xdb2f(%rip)        # 140010120 <stUserMathErr>
   1400025f1:	48 8b 4d 10          	mov    0x10(%rbp),%rcx
   1400025f5:	e8 f6 61 00 00       	call   1400087f0 <__setusermatherr>
   1400025fa:	90                   	nop
   1400025fb:	48 83 c4 20          	add    $0x20,%rsp
   1400025ff:	5d                   	pop    %rbp
   140002600:	c3                   	ret    
   140002601:	90                   	nop
   140002602:	90                   	nop
   140002603:	90                   	nop
   140002604:	90                   	nop
   140002605:	90                   	nop
   140002606:	90                   	nop
   140002607:	90                   	nop
   140002608:	90                   	nop
   140002609:	90                   	nop
   14000260a:	90                   	nop
   14000260b:	90                   	nop
   14000260c:	90                   	nop
   14000260d:	90                   	nop
   14000260e:	90                   	nop
   14000260f:	90                   	nop

0000000140002610 <_gnu_exception_handler>:
   140002610:	55                   	push   %rbp
   140002611:	48 89 e5             	mov    %rsp,%rbp
   140002614:	48 83 ec 30          	sub    $0x30,%rsp
   140002618:	48 89 4d 10          	mov    %rcx,0x10(%rbp)
   14000261c:	c7 45 fc 00 00 00 00 	movl   $0x0,-0x4(%rbp)
   140002623:	c7 45 f8 00 00 00 00 	movl   $0x0,-0x8(%rbp)
   14000262a:	48 8b 45 10          	mov    0x10(%rbp),%rax
   14000262e:	48 8b 00             	mov    (%rax),%rax
   140002631:	8b 00                	mov    (%rax),%eax
   140002633:	25 ff ff ff 20       	and    $0x20ffffff,%eax
   140002638:	3d 43 43 47 20       	cmp    $0x20474343,%eax
   14000263d:	75 1b                	jne    14000265a <_gnu_exception_handler+0x4a>
   14000263f:	48 8b 45 10          	mov    0x10(%rbp),%rax
   140002643:	48 8b 00             	mov    (%rax),%rax
   140002646:	8b 40 04             	mov    0x4(%rax),%eax
   140002649:	83 e0 01             	and    $0x1,%eax
   14000264c:	85 c0                	test   %eax,%eax
   14000264e:	75 0a                	jne    14000265a <_gnu_exception_handler+0x4a>
   140002650:	b8 ff ff ff ff       	mov    $0xffffffff,%eax
   140002655:	e9 d0 01 00 00       	jmp    14000282a <_gnu_exception_handler+0x21a>
   14000265a:	48 8b 45 10          	mov    0x10(%rbp),%rax
   14000265e:	48 8b 00             	mov    (%rax),%rax
   140002661:	8b 00                	mov    (%rax),%eax
   140002663:	3d 96 00 00 c0       	cmp    $0xc0000096,%eax
   140002668:	0f 87 8d 01 00 00    	ja     1400027fb <_gnu_exception_handler+0x1eb>
   14000266e:	3d 8c 00 00 c0       	cmp    $0xc000008c,%eax
   140002673:	73 43                	jae    1400026b8 <_gnu_exception_handler+0xa8>
   140002675:	3d 1d 00 00 c0       	cmp    $0xc000001d,%eax
   14000267a:	0f 84 bf 00 00 00    	je     14000273f <_gnu_exception_handler+0x12f>
   140002680:	3d 1d 00 00 c0       	cmp    $0xc000001d,%eax
   140002685:	0f 87 70 01 00 00    	ja     1400027fb <_gnu_exception_handler+0x1eb>
   14000268b:	3d 08 00 00 c0       	cmp    $0xc0000008,%eax
   140002690:	0f 84 5c 01 00 00    	je     1400027f2 <_gnu_exception_handler+0x1e2>
   140002696:	3d 08 00 00 c0       	cmp    $0xc0000008,%eax
   14000269b:	0f 87 5a 01 00 00    	ja     1400027fb <_gnu_exception_handler+0x1eb>
   1400026a1:	3d 02 00 00 80       	cmp    $0x80000002,%eax
   1400026a6:	0f 84 46 01 00 00    	je     1400027f2 <_gnu_exception_handler+0x1e2>
   1400026ac:	3d 05 00 00 c0       	cmp    $0xc0000005,%eax
   1400026b1:	74 35                	je     1400026e8 <_gnu_exception_handler+0xd8>
   1400026b3:	e9 43 01 00 00       	jmp    1400027fb <_gnu_exception_handler+0x1eb>
   1400026b8:	05 74 ff ff 3f       	add    $0x3fffff74,%eax
   1400026bd:	83 f8 0a             	cmp    $0xa,%eax
   1400026c0:	0f 87 35 01 00 00    	ja     1400027fb <_gnu_exception_handler+0x1eb>
   1400026c6:	89 c0                	mov    %eax,%eax
   1400026c8:	48 8d 14 85 00 00 00 	lea    0x0(,%rax,4),%rdx
   1400026cf:	00 
   1400026d0:	48 8d 05 59 8c 00 00 	lea    0x8c59(%rip),%rax        # 14000b330 <.rdata>
   1400026d7:	8b 04 02             	mov    (%rdx,%rax,1),%eax
   1400026da:	48 98                	cltq   
   1400026dc:	48 8d 15 4d 8c 00 00 	lea    0x8c4d(%rip),%rdx        # 14000b330 <.rdata>
   1400026e3:	48 01 d0             	add    %rdx,%rax
   1400026e6:	ff e0                	jmp    *%rax
   1400026e8:	ba 00 00 00 00       	mov    $0x0,%edx
   1400026ed:	b9 0b 00 00 00       	mov    $0xb,%ecx
   1400026f2:	e8 61 60 00 00       	call   140008758 <signal>
   1400026f7:	48 89 45 f0          	mov    %rax,-0x10(%rbp)
   1400026fb:	48 83 7d f0 01       	cmpq   $0x1,-0x10(%rbp)
   140002700:	75 1b                	jne    14000271d <_gnu_exception_handler+0x10d>
   140002702:	ba 01 00 00 00       	mov    $0x1,%edx
   140002707:	b9 0b 00 00 00       	mov    $0xb,%ecx
   14000270c:	e8 47 60 00 00       	call   140008758 <signal>
   140002711:	c7 45 fc ff ff ff ff 	movl   $0xffffffff,-0x4(%rbp)
   140002718:	e9 e1 00 00 00       	jmp    1400027fe <_gnu_exception_handler+0x1ee>
   14000271d:	48 83 7d f0 00       	cmpq   $0x0,-0x10(%rbp)
   140002722:	0f 84 d6 00 00 00    	je     1400027fe <_gnu_exception_handler+0x1ee>
   140002728:	48 8b 45 f0          	mov    -0x10(%rbp),%rax
   14000272c:	b9 0b 00 00 00       	mov    $0xb,%ecx
   140002731:	ff d0                	call   *%rax
   140002733:	c7 45 fc ff ff ff ff 	movl   $0xffffffff,-0x4(%rbp)
   14000273a:	e9 bf 00 00 00       	jmp    1400027fe <_gnu_exception_handler+0x1ee>
   14000273f:	ba 00 00 00 00       	mov    $0x0,%edx
   140002744:	b9 04 00 00 00       	mov    $0x4,%ecx
   140002749:	e8 0a 60 00 00       	call   140008758 <signal>
   14000274e:	48 89 45 f0          	mov    %rax,-0x10(%rbp)
   140002752:	48 83 7d f0 01       	cmpq   $0x1,-0x10(%rbp)
   140002757:	75 1b                	jne    140002774 <_gnu_exception_handler+0x164>
   140002759:	ba 01 00 00 00       	mov    $0x1,%edx
   14000275e:	b9 04 00 00 00       	mov    $0x4,%ecx
   140002763:	e8 f0 5f 00 00       	call   140008758 <signal>
   140002768:	c7 45 fc ff ff ff ff 	movl   $0xffffffff,-0x4(%rbp)
   14000276f:	e9 8d 00 00 00       	jmp    140002801 <_gnu_exception_handler+0x1f1>
   140002774:	48 83 7d f0 00       	cmpq   $0x0,-0x10(%rbp)
   140002779:	0f 84 82 00 00 00    	je     140002801 <_gnu_exception_handler+0x1f1>
   14000277f:	48 8b 45 f0          	mov    -0x10(%rbp),%rax
   140002783:	b9 04 00 00 00       	mov    $0x4,%ecx
   140002788:	ff d0                	call   *%rax
   14000278a:	c7 45 fc ff ff ff ff 	movl   $0xffffffff,-0x4(%rbp)
   140002791:	eb 6e                	jmp    140002801 <_gnu_exception_handler+0x1f1>
   140002793:	c7 45 f8 01 00 00 00 	movl   $0x1,-0x8(%rbp)
   14000279a:	ba 00 00 00 00       	mov    $0x0,%edx
   14000279f:	b9 08 00 00 00       	mov    $0x8,%ecx
   1400027a4:	e8 af 5f 00 00       	call   140008758 <signal>
   1400027a9:	48 89 45 f0          	mov    %rax,-0x10(%rbp)
   1400027ad:	48 83 7d f0 01       	cmpq   $0x1,-0x10(%rbp)
   1400027b2:	75 23                	jne    1400027d7 <_gnu_exception_handler+0x1c7>
   1400027b4:	ba 01 00 00 00       	mov    $0x1,%edx
   1400027b9:	b9 08 00 00 00       	mov    $0x8,%ecx
   1400027be:	e8 95 5f 00 00       	call   140008758 <signal>
   1400027c3:	83 7d f8 00          	cmpl   $0x0,-0x8(%rbp)
   1400027c7:	74 05                	je     1400027ce <_gnu_exception_handler+0x1be>
   1400027c9:	e8 82 f5 ff ff       	call   140001d50 <_fpreset>
   1400027ce:	c7 45 fc ff ff ff ff 	movl   $0xffffffff,-0x4(%rbp)
   1400027d5:	eb 2d                	jmp    140002804 <_gnu_exception_handler+0x1f4>
   1400027d7:	48 83 7d f0 00       	cmpq   $0x0,-0x10(%rbp)
   1400027dc:	74 26                	je     140002804 <_gnu_exception_handler+0x1f4>
   1400027de:	48 8b 45 f0          	mov    -0x10(%rbp),%rax
   1400027e2:	b9 08 00 00 00       	mov    $0x8,%ecx
   1400027e7:	ff d0                	call   *%rax
   1400027e9:	c7 45 fc ff ff ff ff 	movl   $0xffffffff,-0x4(%rbp)
   1400027f0:	eb 12                	jmp    140002804 <_gnu_exception_handler+0x1f4>
   1400027f2:	c7 45 fc ff ff ff ff 	movl   $0xffffffff,-0x4(%rbp)
   1400027f9:	eb 0a                	jmp    140002805 <_gnu_exception_handler+0x1f5>
   1400027fb:	90                   	nop
   1400027fc:	eb 07                	jmp    140002805 <_gnu_exception_handler+0x1f5>
   1400027fe:	90                   	nop
   1400027ff:	eb 04                	jmp    140002805 <_gnu_exception_handler+0x1f5>
   140002801:	90                   	nop
   140002802:	eb 01                	jmp    140002805 <_gnu_exception_handler+0x1f5>
   140002804:	90                   	nop
   140002805:	83 7d fc 00          	cmpl   $0x0,-0x4(%rbp)
   140002809:	75 1c                	jne    140002827 <_gnu_exception_handler+0x217>
   14000280b:	48 8b 05 2e d9 00 00 	mov    0xd92e(%rip),%rax        # 140010140 <__mingw_oldexcpt_handler>
   140002812:	48 85 c0             	test   %rax,%rax
   140002815:	74 10                	je     140002827 <_gnu_exception_handler+0x217>
   140002817:	48 8b 05 22 d9 00 00 	mov    0xd922(%rip),%rax        # 140010140 <__mingw_oldexcpt_handler>
   14000281e:	48 8b 4d 10          	mov    0x10(%rbp),%rcx
   140002822:	ff d0                	call   *%rax
   140002824:	89 45 fc             	mov    %eax,-0x4(%rbp)
   140002827:	8b 45 fc             	mov    -0x4(%rbp),%eax
   14000282a:	48 83 c4 30          	add    $0x30,%rsp
   14000282e:	5d                   	pop    %rbp
   14000282f:	c3                   	ret    

0000000140002830 <___w64_mingwthr_add_key_dtor>:
   140002830:	55                   	push   %rbp
   140002831:	48 89 e5             	mov    %rsp,%rbp
   140002834:	48 83 ec 30          	sub    $0x30,%rsp
   140002838:	89 4d 10             	mov    %ecx,0x10(%rbp)
   14000283b:	48 89 55 18          	mov    %rdx,0x18(%rbp)
   14000283f:	8b 05 43 d9 00 00    	mov    0xd943(%rip),%eax        # 140010188 <__mingwthr_cs_init>
   140002845:	85 c0                	test   %eax,%eax
   140002847:	75 07                	jne    140002850 <___w64_mingwthr_add_key_dtor+0x20>
   140002849:	b8 00 00 00 00       	mov    $0x0,%eax
   14000284e:	eb 7b                	jmp    1400028cb <___w64_mingwthr_add_key_dtor+0x9b>
   140002850:	ba 18 00 00 00       	mov    $0x18,%edx
   140002855:	b9 01 00 00 00       	mov    $0x1,%ecx
   14000285a:	e8 51 5f 00 00       	call   1400087b0 <calloc>
   14000285f:	48 89 45 f8          	mov    %rax,-0x8(%rbp)
   140002863:	48 83 7d f8 00       	cmpq   $0x0,-0x8(%rbp)
   140002868:	75 07                	jne    140002871 <___w64_mingwthr_add_key_dtor+0x41>
   14000286a:	b8 ff ff ff ff       	mov    $0xffffffff,%eax
   14000286f:	eb 5a                	jmp    1400028cb <___w64_mingwthr_add_key_dtor+0x9b>
   140002871:	48 8b 45 f8          	mov    -0x8(%rbp),%rax
   140002875:	8b 55 10             	mov    0x10(%rbp),%edx
   140002878:	89 10                	mov    %edx,(%rax)
   14000287a:	48 8b 45 f8          	mov    -0x8(%rbp),%rax
   14000287e:	48 8b 55 18          	mov    0x18(%rbp),%rdx
   140002882:	48 89 50 08          	mov    %rdx,0x8(%rax)
   140002886:	48 8d 05 d3 d8 00 00 	lea    0xd8d3(%rip),%rax        # 140010160 <__mingwthr_cs>
   14000288d:	48 89 c1             	mov    %rax,%rcx
   140002890:	48 8b 05 d5 ea 00 00 	mov    0xead5(%rip),%rax        # 14001136c <__imp_EnterCriticalSection>
   140002897:	ff d0                	call   *%rax
   140002899:	48 8b 15 f0 d8 00 00 	mov    0xd8f0(%rip),%rdx        # 140010190 <key_dtor_list>
   1400028a0:	48 8b 45 f8          	mov    -0x8(%rbp),%rax
   1400028a4:	48 89 50 10          	mov    %rdx,0x10(%rax)
   1400028a8:	48 8b 45 f8          	mov    -0x8(%rbp),%rax
   1400028ac:	48 89 05 dd d8 00 00 	mov    %rax,0xd8dd(%rip)        # 140010190 <key_dtor_list>
   1400028b3:	48 8d 05 a6 d8 00 00 	lea    0xd8a6(%rip),%rax        # 140010160 <__mingwthr_cs>
   1400028ba:	48 89 c1             	mov    %rax,%rcx
   1400028bd:	48 8b 05 e8 ea 00 00 	mov    0xeae8(%rip),%rax        # 1400113ac <__imp_LeaveCriticalSection>
   1400028c4:	ff d0                	call   *%rax
   1400028c6:	b8 00 00 00 00       	mov    $0x0,%eax
   1400028cb:	48 83 c4 30          	add    $0x30,%rsp
   1400028cf:	5d                   	pop    %rbp
   1400028d0:	c3                   	ret    

00000001400028d1 <___w64_mingwthr_remove_key_dtor>:
   1400028d1:	55                   	push   %rbp
   1400028d2:	48 89 e5             	mov    %rsp,%rbp
   1400028d5:	48 83 ec 30          	sub    $0x30,%rsp
   1400028d9:	89 4d 10             	mov    %ecx,0x10(%rbp)
   1400028dc:	8b 05 a6 d8 00 00    	mov    0xd8a6(%rip),%eax        # 140010188 <__mingwthr_cs_init>
   1400028e2:	85 c0                	test   %eax,%eax
   1400028e4:	75 0a                	jne    1400028f0 <___w64_mingwthr_remove_key_dtor+0x1f>
   1400028e6:	b8 00 00 00 00       	mov    $0x0,%eax
   1400028eb:	e9 9c 00 00 00       	jmp    14000298c <___w64_mingwthr_remove_key_dtor+0xbb>
   1400028f0:	48 8d 05 69 d8 00 00 	lea    0xd869(%rip),%rax        # 140010160 <__mingwthr_cs>
   1400028f7:	48 89 c1             	mov    %rax,%rcx
   1400028fa:	48 8b 05 6b ea 00 00 	mov    0xea6b(%rip),%rax        # 14001136c <__imp_EnterCriticalSection>
   140002901:	ff d0                	call   *%rax
   140002903:	48 c7 45 f8 00 00 00 	movq   $0x0,-0x8(%rbp)
   14000290a:	00 
   14000290b:	48 8b 05 7e d8 00 00 	mov    0xd87e(%rip),%rax        # 140010190 <key_dtor_list>
   140002912:	48 89 45 f0          	mov    %rax,-0x10(%rbp)
   140002916:	eb 55                	jmp    14000296d <___w64_mingwthr_remove_key_dtor+0x9c>
   140002918:	48 8b 45 f0          	mov    -0x10(%rbp),%rax
   14000291c:	8b 00                	mov    (%rax),%eax
   14000291e:	39 45 10             	cmp    %eax,0x10(%rbp)
   140002921:	75 36                	jne    140002959 <___w64_mingwthr_remove_key_dtor+0x88>
   140002923:	48 83 7d f8 00       	cmpq   $0x0,-0x8(%rbp)
   140002928:	75 11                	jne    14000293b <___w64_mingwthr_remove_key_dtor+0x6a>
   14000292a:	48 8b 45 f0          	mov    -0x10(%rbp),%rax
   14000292e:	48 8b 40 10          	mov    0x10(%rax),%rax
   140002932:	48 89 05 57 d8 00 00 	mov    %rax,0xd857(%rip)        # 140010190 <key_dtor_list>
   140002939:	eb 10                	jmp    14000294b <___w64_mingwthr_remove_key_dtor+0x7a>
   14000293b:	48 8b 45 f0          	mov    -0x10(%rbp),%rax
   14000293f:	48 8b 50 10          	mov    0x10(%rax),%rdx
   140002943:	48 8b 45 f8          	mov    -0x8(%rbp),%rax
   140002947:	48 89 50 10          	mov    %rdx,0x10(%rax)
   14000294b:	48 8b 45 f0          	mov    -0x10(%rbp),%rax
   14000294f:	48 89 c1             	mov    %rax,%rcx
   140002952:	e8 31 5e 00 00       	call   140008788 <free>
   140002957:	eb 1b                	jmp    140002974 <___w64_mingwthr_remove_key_dtor+0xa3>
   140002959:	48 8b 45 f0          	mov    -0x10(%rbp),%rax
   14000295d:	48 89 45 f8          	mov    %rax,-0x8(%rbp)
   140002961:	48 8b 45 f0          	mov    -0x10(%rbp),%rax
   140002965:	48 8b 40 10          	mov    0x10(%rax),%rax
   140002969:	48 89 45 f0          	mov    %rax,-0x10(%rbp)
   14000296d:	48 83 7d f0 00       	cmpq   $0x0,-0x10(%rbp)
   140002972:	75 a4                	jne    140002918 <___w64_mingwthr_remove_key_dtor+0x47>
   140002974:	48 8d 05 e5 d7 00 00 	lea    0xd7e5(%rip),%rax        # 140010160 <__mingwthr_cs>
   14000297b:	48 89 c1             	mov    %rax,%rcx
   14000297e:	48 8b 05 27 ea 00 00 	mov    0xea27(%rip),%rax        # 1400113ac <__imp_LeaveCriticalSection>
   140002985:	ff d0                	call   *%rax
   140002987:	b8 00 00 00 00       	mov    $0x0,%eax
   14000298c:	48 83 c4 30          	add    $0x30,%rsp
   140002990:	5d                   	pop    %rbp
   140002991:	c3                   	ret    

0000000140002992 <__mingwthr_run_key_dtors>:
   140002992:	55                   	push   %rbp
   140002993:	48 89 e5             	mov    %rsp,%rbp
   140002996:	48 83 ec 30          	sub    $0x30,%rsp
   14000299a:	8b 05 e8 d7 00 00    	mov    0xd7e8(%rip),%eax        # 140010188 <__mingwthr_cs_init>
   1400029a0:	85 c0                	test   %eax,%eax
   1400029a2:	0f 84 82 00 00 00    	je     140002a2a <__mingwthr_run_key_dtors+0x98>
   1400029a8:	48 8d 05 b1 d7 00 00 	lea    0xd7b1(%rip),%rax        # 140010160 <__mingwthr_cs>
   1400029af:	48 89 c1             	mov    %rax,%rcx
   1400029b2:	48 8b 05 b3 e9 00 00 	mov    0xe9b3(%rip),%rax        # 14001136c <__imp_EnterCriticalSection>
   1400029b9:	ff d0                	call   *%rax
   1400029bb:	48 8b 05 ce d7 00 00 	mov    0xd7ce(%rip),%rax        # 140010190 <key_dtor_list>
   1400029c2:	48 89 45 f8          	mov    %rax,-0x8(%rbp)
   1400029c6:	eb 46                	jmp    140002a0e <__mingwthr_run_key_dtors+0x7c>
   1400029c8:	48 8b 45 f8          	mov    -0x8(%rbp),%rax
   1400029cc:	8b 00                	mov    (%rax),%eax
   1400029ce:	89 c1                	mov    %eax,%ecx
   1400029d0:	48 8b 05 fd e9 00 00 	mov    0xe9fd(%rip),%rax        # 1400113d4 <__imp_TlsGetValue>
   1400029d7:	ff d0                	call   *%rax
   1400029d9:	48 89 45 f0          	mov    %rax,-0x10(%rbp)
   1400029dd:	48 8b 05 98 e9 00 00 	mov    0xe998(%rip),%rax        # 14001137c <__imp_GetLastError>
   1400029e4:	ff d0                	call   *%rax
   1400029e6:	85 c0                	test   %eax,%eax
   1400029e8:	75 18                	jne    140002a02 <__mingwthr_run_key_dtors+0x70>
   1400029ea:	48 83 7d f0 00       	cmpq   $0x0,-0x10(%rbp)
   1400029ef:	74 11                	je     140002a02 <__mingwthr_run_key_dtors+0x70>
   1400029f1:	48 8b 45 f8          	mov    -0x8(%rbp),%rax
   1400029f5:	48 8b 50 08          	mov    0x8(%rax),%rdx
   1400029f9:	48 8b 45 f0          	mov    -0x10(%rbp),%rax
   1400029fd:	48 89 c1             	mov    %rax,%rcx
   140002a00:	ff d2                	call   *%rdx
   140002a02:	48 8b 45 f8          	mov    -0x8(%rbp),%rax
   140002a06:	48 8b 40 10          	mov    0x10(%rax),%rax
   140002a0a:	48 89 45 f8          	mov    %rax,-0x8(%rbp)
   140002a0e:	48 83 7d f8 00       	cmpq   $0x0,-0x8(%rbp)
   140002a13:	75 b3                	jne    1400029c8 <__mingwthr_run_key_dtors+0x36>
   140002a15:	48 8d 05 44 d7 00 00 	lea    0xd744(%rip),%rax        # 140010160 <__mingwthr_cs>
   140002a1c:	48 89 c1             	mov    %rax,%rcx
   140002a1f:	48 8b 05 86 e9 00 00 	mov    0xe986(%rip),%rax        # 1400113ac <__imp_LeaveCriticalSection>
   140002a26:	ff d0                	call   *%rax
   140002a28:	eb 01                	jmp    140002a2b <__mingwthr_run_key_dtors+0x99>
   140002a2a:	90                   	nop
   140002a2b:	48 83 c4 30          	add    $0x30,%rsp
   140002a2f:	5d                   	pop    %rbp
   140002a30:	c3                   	ret    

0000000140002a31 <__mingw_TLScallback>:
   140002a31:	55                   	push   %rbp
   140002a32:	48 89 e5             	mov    %rsp,%rbp
   140002a35:	48 83 ec 30          	sub    $0x30,%rsp
   140002a39:	48 89 4d 10          	mov    %rcx,0x10(%rbp)
   140002a3d:	89 55 18             	mov    %edx,0x18(%rbp)
   140002a40:	4c 89 45 20          	mov    %r8,0x20(%rbp)
   140002a44:	83 7d 18 03          	cmpl   $0x3,0x18(%rbp)
   140002a48:	0f 84 cc 00 00 00    	je     140002b1a <__mingw_TLScallback+0xe9>
   140002a4e:	83 7d 18 03          	cmpl   $0x3,0x18(%rbp)
   140002a52:	0f 87 ca 00 00 00    	ja     140002b22 <__mingw_TLScallback+0xf1>
   140002a58:	83 7d 18 02          	cmpl   $0x2,0x18(%rbp)
   140002a5c:	0f 84 b1 00 00 00    	je     140002b13 <__mingw_TLScallback+0xe2>
   140002a62:	83 7d 18 02          	cmpl   $0x2,0x18(%rbp)
   140002a66:	0f 87 b6 00 00 00    	ja     140002b22 <__mingw_TLScallback+0xf1>
   140002a6c:	83 7d 18 00          	cmpl   $0x0,0x18(%rbp)
   140002a70:	74 33                	je     140002aa5 <__mingw_TLScallback+0x74>
   140002a72:	83 7d 18 01          	cmpl   $0x1,0x18(%rbp)
   140002a76:	0f 85 a6 00 00 00    	jne    140002b22 <__mingw_TLScallback+0xf1>
   140002a7c:	8b 05 06 d7 00 00    	mov    0xd706(%rip),%eax        # 140010188 <__mingwthr_cs_init>
   140002a82:	85 c0                	test   %eax,%eax
   140002a84:	75 13                	jne    140002a99 <__mingw_TLScallback+0x68>
   140002a86:	48 8d 05 d3 d6 00 00 	lea    0xd6d3(%rip),%rax        # 140010160 <__mingwthr_cs>
   140002a8d:	48 89 c1             	mov    %rax,%rcx
   140002a90:	48 8b 05 05 e9 00 00 	mov    0xe905(%rip),%rax        # 14001139c <__imp_InitializeCriticalSection>
   140002a97:	ff d0                	call   *%rax
   140002a99:	c7 05 e5 d6 00 00 01 	movl   $0x1,0xd6e5(%rip)        # 140010188 <__mingwthr_cs_init>
   140002aa0:	00 00 00 
   140002aa3:	eb 7d                	jmp    140002b22 <__mingw_TLScallback+0xf1>
   140002aa5:	e8 e8 fe ff ff       	call   140002992 <__mingwthr_run_key_dtors>
   140002aaa:	8b 05 d8 d6 00 00    	mov    0xd6d8(%rip),%eax        # 140010188 <__mingwthr_cs_init>
   140002ab0:	83 f8 01             	cmp    $0x1,%eax
   140002ab3:	75 6c                	jne    140002b21 <__mingw_TLScallback+0xf0>
   140002ab5:	48 8b 05 d4 d6 00 00 	mov    0xd6d4(%rip),%rax        # 140010190 <key_dtor_list>
   140002abc:	48 89 45 f8          	mov    %rax,-0x8(%rbp)
   140002ac0:	eb 20                	jmp    140002ae2 <__mingw_TLScallback+0xb1>
   140002ac2:	48 8b 45 f8          	mov    -0x8(%rbp),%rax
   140002ac6:	48 8b 40 10          	mov    0x10(%rax),%rax
   140002aca:	48 89 45 f0          	mov    %rax,-0x10(%rbp)
   140002ace:	48 8b 45 f8          	mov    -0x8(%rbp),%rax
   140002ad2:	48 89 c1             	mov    %rax,%rcx
   140002ad5:	e8 ae 5c 00 00       	call   140008788 <free>
   140002ada:	48 8b 45 f0          	mov    -0x10(%rbp),%rax
   140002ade:	48 89 45 f8          	mov    %rax,-0x8(%rbp)
   140002ae2:	48 83 7d f8 00       	cmpq   $0x0,-0x8(%rbp)
   140002ae7:	75 d9                	jne    140002ac2 <__mingw_TLScallback+0x91>
   140002ae9:	48 c7 05 9c d6 00 00 	movq   $0x0,0xd69c(%rip)        # 140010190 <key_dtor_list>
   140002af0:	00 00 00 00 
   140002af4:	c7 05 8a d6 00 00 00 	movl   $0x0,0xd68a(%rip)        # 140010188 <__mingwthr_cs_init>
   140002afb:	00 00 00 
   140002afe:	48 8d 05 5b d6 00 00 	lea    0xd65b(%rip),%rax        # 140010160 <__mingwthr_cs>
   140002b05:	48 89 c1             	mov    %rax,%rcx
   140002b08:	48 8b 05 55 e8 00 00 	mov    0xe855(%rip),%rax        # 140011364 <__imp_DeleteCriticalSection>
   140002b0f:	ff d0                	call   *%rax
   140002b11:	eb 0e                	jmp    140002b21 <__mingw_TLScallback+0xf0>
   140002b13:	e8 38 f2 ff ff       	call   140001d50 <_fpreset>
   140002b18:	eb 08                	jmp    140002b22 <__mingw_TLScallback+0xf1>
   140002b1a:	e8 73 fe ff ff       	call   140002992 <__mingwthr_run_key_dtors>
   140002b1f:	eb 01                	jmp    140002b22 <__mingw_TLScallback+0xf1>
   140002b21:	90                   	nop
   140002b22:	b8 01 00 00 00       	mov    $0x1,%eax
   140002b27:	48 83 c4 30          	add    $0x30,%rsp
   140002b2b:	5d                   	pop    %rbp
   140002b2c:	c3                   	ret    
   140002b2d:	90                   	nop
   140002b2e:	90                   	nop
   140002b2f:	90                   	nop

0000000140002b30 <_ValidateImageBase>:
   140002b30:	55                   	push   %rbp
   140002b31:	48 89 e5             	mov    %rsp,%rbp
   140002b34:	48 83 ec 20          	sub    $0x20,%rsp
   140002b38:	48 89 4d 10          	mov    %rcx,0x10(%rbp)
   140002b3c:	48 8b 45 10          	mov    0x10(%rbp),%rax
   140002b40:	48 89 45 f8          	mov    %rax,-0x8(%rbp)
   140002b44:	48 8b 45 f8          	mov    -0x8(%rbp),%rax
   140002b48:	0f b7 00             	movzwl (%rax),%eax
   140002b4b:	66 3d 4d 5a          	cmp    $0x5a4d,%ax
   140002b4f:	74 07                	je     140002b58 <_ValidateImageBase+0x28>
   140002b51:	b8 00 00 00 00       	mov    $0x0,%eax
   140002b56:	eb 4e                	jmp    140002ba6 <_ValidateImageBase+0x76>
   140002b58:	48 8b 45 f8          	mov    -0x8(%rbp),%rax
   140002b5c:	8b 40 3c             	mov    0x3c(%rax),%eax
   140002b5f:	48 63 d0             	movslq %eax,%rdx
   140002b62:	48 8b 45 f8          	mov    -0x8(%rbp),%rax
   140002b66:	48 01 d0             	add    %rdx,%rax
   140002b69:	48 89 45 f0          	mov    %rax,-0x10(%rbp)
   140002b6d:	48 8b 45 f0          	mov    -0x10(%rbp),%rax
   140002b71:	8b 00                	mov    (%rax),%eax
   140002b73:	3d 50 45 00 00       	cmp    $0x4550,%eax
   140002b78:	74 07                	je     140002b81 <_ValidateImageBase+0x51>
   140002b7a:	b8 00 00 00 00       	mov    $0x0,%eax
   140002b7f:	eb 25                	jmp    140002ba6 <_ValidateImageBase+0x76>
   140002b81:	48 8b 45 f0          	mov    -0x10(%rbp),%rax
   140002b85:	48 83 c0 18          	add    $0x18,%rax
   140002b89:	48 89 45 e8          	mov    %rax,-0x18(%rbp)
   140002b8d:	48 8b 45 e8          	mov    -0x18(%rbp),%rax
   140002b91:	0f b7 00             	movzwl (%rax),%eax
   140002b94:	66 3d 0b 02          	cmp    $0x20b,%ax
   140002b98:	74 07                	je     140002ba1 <_ValidateImageBase+0x71>
   140002b9a:	b8 00 00 00 00       	mov    $0x0,%eax
   140002b9f:	eb 05                	jmp    140002ba6 <_ValidateImageBase+0x76>
   140002ba1:	b8 01 00 00 00       	mov    $0x1,%eax
   140002ba6:	48 83 c4 20          	add    $0x20,%rsp
   140002baa:	5d                   	pop    %rbp
   140002bab:	c3                   	ret    

0000000140002bac <_FindPESection>:
   140002bac:	55                   	push   %rbp
   140002bad:	48 89 e5             	mov    %rsp,%rbp
   140002bb0:	48 83 ec 20          	sub    $0x20,%rsp
   140002bb4:	48 89 4d 10          	mov    %rcx,0x10(%rbp)
   140002bb8:	48 89 55 18          	mov    %rdx,0x18(%rbp)
   140002bbc:	48 8b 45 10          	mov    0x10(%rbp),%rax
   140002bc0:	8b 40 3c             	mov    0x3c(%rax),%eax
   140002bc3:	48 63 d0             	movslq %eax,%rdx
   140002bc6:	48 8b 45 10          	mov    0x10(%rbp),%rax
   140002bca:	48 01 d0             	add    %rdx,%rax
   140002bcd:	48 89 45 e8          	mov    %rax,-0x18(%rbp)
   140002bd1:	c7 45 f4 00 00 00 00 	movl   $0x0,-0xc(%rbp)
   140002bd8:	48 8b 45 e8          	mov    -0x18(%rbp),%rax
   140002bdc:	0f b7 40 14          	movzwl 0x14(%rax),%eax
   140002be0:	0f b7 d0             	movzwl %ax,%edx
   140002be3:	48 8b 45 e8          	mov    -0x18(%rbp),%rax
   140002be7:	48 01 d0             	add    %rdx,%rax
   140002bea:	48 83 c0 18          	add    $0x18,%rax
   140002bee:	48 89 45 f8          	mov    %rax,-0x8(%rbp)
   140002bf2:	eb 36                	jmp    140002c2a <_FindPESection+0x7e>
   140002bf4:	48 8b 45 f8          	mov    -0x8(%rbp),%rax
   140002bf8:	8b 40 0c             	mov    0xc(%rax),%eax
   140002bfb:	89 c0                	mov    %eax,%eax
   140002bfd:	48 39 45 18          	cmp    %rax,0x18(%rbp)
   140002c01:	72 1e                	jb     140002c21 <_FindPESection+0x75>
   140002c03:	48 8b 45 f8          	mov    -0x8(%rbp),%rax
   140002c07:	8b 50 0c             	mov    0xc(%rax),%edx
   140002c0a:	48 8b 45 f8          	mov    -0x8(%rbp),%rax
   140002c0e:	8b 40 08             	mov    0x8(%rax),%eax
   140002c11:	01 d0                	add    %edx,%eax
   140002c13:	89 c0                	mov    %eax,%eax
   140002c15:	48 39 45 18          	cmp    %rax,0x18(%rbp)
   140002c19:	73 06                	jae    140002c21 <_FindPESection+0x75>
   140002c1b:	48 8b 45 f8          	mov    -0x8(%rbp),%rax
   140002c1f:	eb 1e                	jmp    140002c3f <_FindPESection+0x93>
   140002c21:	83 45 f4 01          	addl   $0x1,-0xc(%rbp)
   140002c25:	48 83 45 f8 28       	addq   $0x28,-0x8(%rbp)
   140002c2a:	48 8b 45 e8          	mov    -0x18(%rbp),%rax
   140002c2e:	0f b7 40 06          	movzwl 0x6(%rax),%eax
   140002c32:	0f b7 c0             	movzwl %ax,%eax
   140002c35:	39 45 f4             	cmp    %eax,-0xc(%rbp)
   140002c38:	72 ba                	jb     140002bf4 <_FindPESection+0x48>
   140002c3a:	b8 00 00 00 00       	mov    $0x0,%eax
   140002c3f:	48 83 c4 20          	add    $0x20,%rsp
   140002c43:	5d                   	pop    %rbp
   140002c44:	c3                   	ret    

0000000140002c45 <_FindPESectionByName>:
   140002c45:	55                   	push   %rbp
   140002c46:	48 89 e5             	mov    %rsp,%rbp
   140002c49:	48 83 ec 40          	sub    $0x40,%rsp
   140002c4d:	48 89 4d 10          	mov    %rcx,0x10(%rbp)
   140002c51:	48 8b 4d 10          	mov    0x10(%rbp),%rcx
   140002c55:	e8 ee 5a 00 00       	call   140008748 <strlen>
   140002c5a:	48 83 f8 08          	cmp    $0x8,%rax
   140002c5e:	76 0a                	jbe    140002c6a <_FindPESectionByName+0x25>
   140002c60:	b8 00 00 00 00       	mov    $0x0,%eax
   140002c65:	e9 98 00 00 00       	jmp    140002d02 <_FindPESectionByName+0xbd>
   140002c6a:	48 8b 05 ff 8a 00 00 	mov    0x8aff(%rip),%rax        # 14000b770 <.refptr.__image_base__>
   140002c71:	48 89 45 e8          	mov    %rax,-0x18(%rbp)
   140002c75:	48 8b 45 e8          	mov    -0x18(%rbp),%rax
   140002c79:	48 89 c1             	mov    %rax,%rcx
   140002c7c:	e8 af fe ff ff       	call   140002b30 <_ValidateImageBase>
   140002c81:	85 c0                	test   %eax,%eax
   140002c83:	75 07                	jne    140002c8c <_FindPESectionByName+0x47>
   140002c85:	b8 00 00 00 00       	mov    $0x0,%eax
   140002c8a:	eb 76                	jmp    140002d02 <_FindPESectionByName+0xbd>
   140002c8c:	48 8b 45 e8          	mov    -0x18(%rbp),%rax
   140002c90:	8b 40 3c             	mov    0x3c(%rax),%eax
   140002c93:	48 63 d0             	movslq %eax,%rdx
   140002c96:	48 8b 45 e8          	mov    -0x18(%rbp),%rax
   140002c9a:	48 01 d0             	add    %rdx,%rax
   140002c9d:	48 89 45 e0          	mov    %rax,-0x20(%rbp)
   140002ca1:	c7 45 f4 00 00 00 00 	movl   $0x0,-0xc(%rbp)
   140002ca8:	48 8b 45 e0          	mov    -0x20(%rbp),%rax
   140002cac:	0f b7 40 14          	movzwl 0x14(%rax),%eax
   140002cb0:	0f b7 d0             	movzwl %ax,%edx
   140002cb3:	48 8b 45 e0          	mov    -0x20(%rbp),%rax
   140002cb7:	48 01 d0             	add    %rdx,%rax
   140002cba:	48 83 c0 18          	add    $0x18,%rax
   140002cbe:	48 89 45 f8          	mov    %rax,-0x8(%rbp)
   140002cc2:	eb 29                	jmp    140002ced <_FindPESectionByName+0xa8>
   140002cc4:	48 8b 45 f8          	mov    -0x8(%rbp),%rax
   140002cc8:	41 b8 08 00 00 00    	mov    $0x8,%r8d
   140002cce:	48 8b 55 10          	mov    0x10(%rbp),%rdx
   140002cd2:	48 89 c1             	mov    %rax,%rcx
   140002cd5:	e8 66 5a 00 00       	call   140008740 <strncmp>
   140002cda:	85 c0                	test   %eax,%eax
   140002cdc:	75 06                	jne    140002ce4 <_FindPESectionByName+0x9f>
   140002cde:	48 8b 45 f8          	mov    -0x8(%rbp),%rax
   140002ce2:	eb 1e                	jmp    140002d02 <_FindPESectionByName+0xbd>
   140002ce4:	83 45 f4 01          	addl   $0x1,-0xc(%rbp)
   140002ce8:	48 83 45 f8 28       	addq   $0x28,-0x8(%rbp)
   140002ced:	48 8b 45 e0          	mov    -0x20(%rbp),%rax
   140002cf1:	0f b7 40 06          	movzwl 0x6(%rax),%eax
   140002cf5:	0f b7 c0             	movzwl %ax,%eax
   140002cf8:	39 45 f4             	cmp    %eax,-0xc(%rbp)
   140002cfb:	72 c7                	jb     140002cc4 <_FindPESectionByName+0x7f>
   140002cfd:	b8 00 00 00 00       	mov    $0x0,%eax
   140002d02:	48 83 c4 40          	add    $0x40,%rsp
   140002d06:	5d                   	pop    %rbp
   140002d07:	c3                   	ret    

0000000140002d08 <__mingw_GetSectionForAddress>:
   140002d08:	55                   	push   %rbp
   140002d09:	48 89 e5             	mov    %rsp,%rbp
   140002d0c:	48 83 ec 30          	sub    $0x30,%rsp
   140002d10:	48 89 4d 10          	mov    %rcx,0x10(%rbp)
   140002d14:	48 8b 05 55 8a 00 00 	mov    0x8a55(%rip),%rax        # 14000b770 <.refptr.__image_base__>
   140002d1b:	48 89 45 f8          	mov    %rax,-0x8(%rbp)
   140002d1f:	48 8b 45 f8          	mov    -0x8(%rbp),%rax
   140002d23:	48 89 c1             	mov    %rax,%rcx
   140002d26:	e8 05 fe ff ff       	call   140002b30 <_ValidateImageBase>
   140002d2b:	85 c0                	test   %eax,%eax
   140002d2d:	75 07                	jne    140002d36 <__mingw_GetSectionForAddress+0x2e>
   140002d2f:	b8 00 00 00 00       	mov    $0x0,%eax
   140002d34:	eb 1c                	jmp    140002d52 <__mingw_GetSectionForAddress+0x4a>
   140002d36:	48 8b 45 10          	mov    0x10(%rbp),%rax
   140002d3a:	48 2b 45 f8          	sub    -0x8(%rbp),%rax
   140002d3e:	48 89 45 f0          	mov    %rax,-0x10(%rbp)
   140002d42:	48 8b 55 f0          	mov    -0x10(%rbp),%rdx
   140002d46:	48 8b 45 f8          	mov    -0x8(%rbp),%rax
   140002d4a:	48 89 c1             	mov    %rax,%rcx
   140002d4d:	e8 5a fe ff ff       	call   140002bac <_FindPESection>
   140002d52:	48 83 c4 30          	add    $0x30,%rsp
   140002d56:	5d                   	pop    %rbp
   140002d57:	c3                   	ret    

0000000140002d58 <__mingw_GetSectionCount>:
   140002d58:	55                   	push   %rbp
   140002d59:	48 89 e5             	mov    %rsp,%rbp
   140002d5c:	48 83 ec 30          	sub    $0x30,%rsp
   140002d60:	48 8b 05 09 8a 00 00 	mov    0x8a09(%rip),%rax        # 14000b770 <.refptr.__image_base__>
   140002d67:	48 89 45 f8          	mov    %rax,-0x8(%rbp)
   140002d6b:	48 8b 45 f8          	mov    -0x8(%rbp),%rax
   140002d6f:	48 89 c1             	mov    %rax,%rcx
   140002d72:	e8 b9 fd ff ff       	call   140002b30 <_ValidateImageBase>
   140002d77:	85 c0                	test   %eax,%eax
   140002d79:	75 07                	jne    140002d82 <__mingw_GetSectionCount+0x2a>
   140002d7b:	b8 00 00 00 00       	mov    $0x0,%eax
   140002d80:	eb 20                	jmp    140002da2 <__mingw_GetSectionCount+0x4a>
   140002d82:	48 8b 45 f8          	mov    -0x8(%rbp),%rax
   140002d86:	8b 40 3c             	mov    0x3c(%rax),%eax
   140002d89:	48 63 d0             	movslq %eax,%rdx
   140002d8c:	48 8b 45 f8          	mov    -0x8(%rbp),%rax
   140002d90:	48 01 d0             	add    %rdx,%rax
   140002d93:	48 89 45 f0          	mov    %rax,-0x10(%rbp)
   140002d97:	48 8b 45 f0          	mov    -0x10(%rbp),%rax
   140002d9b:	0f b7 40 06          	movzwl 0x6(%rax),%eax
   140002d9f:	0f b7 c0             	movzwl %ax,%eax
   140002da2:	48 83 c4 30          	add    $0x30,%rsp
   140002da6:	5d                   	pop    %rbp
   140002da7:	c3                   	ret    

0000000140002da8 <_FindPESectionExec>:
   140002da8:	55                   	push   %rbp
   140002da9:	48 89 e5             	mov    %rsp,%rbp
   140002dac:	48 83 ec 40          	sub    $0x40,%rsp
   140002db0:	48 89 4d 10          	mov    %rcx,0x10(%rbp)
   140002db4:	48 8b 05 b5 89 00 00 	mov    0x89b5(%rip),%rax        # 14000b770 <.refptr.__image_base__>
   140002dbb:	48 89 45 e8          	mov    %rax,-0x18(%rbp)
   140002dbf:	48 8b 45 e8          	mov    -0x18(%rbp),%rax
   140002dc3:	48 89 c1             	mov    %rax,%rcx
   140002dc6:	e8 65 fd ff ff       	call   140002b30 <_ValidateImageBase>
   140002dcb:	85 c0                	test   %eax,%eax
   140002dcd:	75 07                	jne    140002dd6 <_FindPESectionExec+0x2e>
   140002dcf:	b8 00 00 00 00       	mov    $0x0,%eax
   140002dd4:	eb 78                	jmp    140002e4e <_FindPESectionExec+0xa6>
   140002dd6:	48 8b 45 e8          	mov    -0x18(%rbp),%rax
   140002dda:	8b 40 3c             	mov    0x3c(%rax),%eax
   140002ddd:	48 63 d0             	movslq %eax,%rdx
   140002de0:	48 8b 45 e8          	mov    -0x18(%rbp),%rax
   140002de4:	48 01 d0             	add    %rdx,%rax
   140002de7:	48 89 45 e0          	mov    %rax,-0x20(%rbp)
   140002deb:	c7 45 f4 00 00 00 00 	movl   $0x0,-0xc(%rbp)
   140002df2:	48 8b 45 e0          	mov    -0x20(%rbp),%rax
   140002df6:	0f b7 40 14          	movzwl 0x14(%rax),%eax
   140002dfa:	0f b7 d0             	movzwl %ax,%edx
   140002dfd:	48 8b 45 e0          	mov    -0x20(%rbp),%rax
   140002e01:	48 01 d0             	add    %rdx,%rax
   140002e04:	48 83 c0 18          	add    $0x18,%rax
   140002e08:	48 89 45 f8          	mov    %rax,-0x8(%rbp)
   140002e0c:	eb 2b                	jmp    140002e39 <_FindPESectionExec+0x91>
   140002e0e:	48 8b 45 f8          	mov    -0x8(%rbp),%rax
   140002e12:	8b 40 24             	mov    0x24(%rax),%eax
   140002e15:	25 00 00 00 20       	and    $0x20000000,%eax
   140002e1a:	85 c0                	test   %eax,%eax
   140002e1c:	74 12                	je     140002e30 <_FindPESectionExec+0x88>
   140002e1e:	48 83 7d 10 00       	cmpq   $0x0,0x10(%rbp)
   140002e23:	75 06                	jne    140002e2b <_FindPESectionExec+0x83>
   140002e25:	48 8b 45 f8          	mov    -0x8(%rbp),%rax
   140002e29:	eb 23                	jmp    140002e4e <_FindPESectionExec+0xa6>
   140002e2b:	48 83 6d 10 01       	subq   $0x1,0x10(%rbp)
   140002e30:	83 45 f4 01          	addl   $0x1,-0xc(%rbp)
   140002e34:	48 83 45 f8 28       	addq   $0x28,-0x8(%rbp)
   140002e39:	48 8b 45 e0          	mov    -0x20(%rbp),%rax
   140002e3d:	0f b7 40 06          	movzwl 0x6(%rax),%eax
   140002e41:	0f b7 c0             	movzwl %ax,%eax
   140002e44:	39 45 f4             	cmp    %eax,-0xc(%rbp)
   140002e47:	72 c5                	jb     140002e0e <_FindPESectionExec+0x66>
   140002e49:	b8 00 00 00 00       	mov    $0x0,%eax
   140002e4e:	48 83 c4 40          	add    $0x40,%rsp
   140002e52:	5d                   	pop    %rbp
   140002e53:	c3                   	ret    

0000000140002e54 <_GetPEImageBase>:
   140002e54:	55                   	push   %rbp
   140002e55:	48 89 e5             	mov    %rsp,%rbp
   140002e58:	48 83 ec 30          	sub    $0x30,%rsp
   140002e5c:	48 8b 05 0d 89 00 00 	mov    0x890d(%rip),%rax        # 14000b770 <.refptr.__image_base__>
   140002e63:	48 89 45 f8          	mov    %rax,-0x8(%rbp)
   140002e67:	48 8b 45 f8          	mov    -0x8(%rbp),%rax
   140002e6b:	48 89 c1             	mov    %rax,%rcx
   140002e6e:	e8 bd fc ff ff       	call   140002b30 <_ValidateImageBase>
   140002e73:	85 c0                	test   %eax,%eax
   140002e75:	75 07                	jne    140002e7e <_GetPEImageBase+0x2a>
   140002e77:	b8 00 00 00 00       	mov    $0x0,%eax
   140002e7c:	eb 04                	jmp    140002e82 <_GetPEImageBase+0x2e>
   140002e7e:	48 8b 45 f8          	mov    -0x8(%rbp),%rax
   140002e82:	48 83 c4 30          	add    $0x30,%rsp
   140002e86:	5d                   	pop    %rbp
   140002e87:	c3                   	ret    

0000000140002e88 <_IsNonwritableInCurrentImage>:
   140002e88:	55                   	push   %rbp
   140002e89:	48 89 e5             	mov    %rsp,%rbp
   140002e8c:	48 83 ec 40          	sub    $0x40,%rsp
   140002e90:	48 89 4d 10          	mov    %rcx,0x10(%rbp)
   140002e94:	48 8b 05 d5 88 00 00 	mov    0x88d5(%rip),%rax        # 14000b770 <.refptr.__image_base__>
   140002e9b:	48 89 45 f8          	mov    %rax,-0x8(%rbp)
   140002e9f:	48 8b 45 f8          	mov    -0x8(%rbp),%rax
   140002ea3:	48 89 c1             	mov    %rax,%rcx
   140002ea6:	e8 85 fc ff ff       	call   140002b30 <_ValidateImageBase>
   140002eab:	85 c0                	test   %eax,%eax
   140002ead:	75 07                	jne    140002eb6 <_IsNonwritableInCurrentImage+0x2e>
   140002eaf:	b8 00 00 00 00       	mov    $0x0,%eax
   140002eb4:	eb 3d                	jmp    140002ef3 <_IsNonwritableInCurrentImage+0x6b>
   140002eb6:	48 8b 45 10          	mov    0x10(%rbp),%rax
   140002eba:	48 2b 45 f8          	sub    -0x8(%rbp),%rax
   140002ebe:	48 89 45 f0          	mov    %rax,-0x10(%rbp)
   140002ec2:	48 8b 55 f0          	mov    -0x10(%rbp),%rdx
   140002ec6:	48 8b 45 f8          	mov    -0x8(%rbp),%rax
   140002eca:	48 89 c1             	mov    %rax,%rcx
   140002ecd:	e8 da fc ff ff       	call   140002bac <_FindPESection>
   140002ed2:	48 89 45 e8          	mov    %rax,-0x18(%rbp)
   140002ed6:	48 83 7d e8 00       	cmpq   $0x0,-0x18(%rbp)
   140002edb:	75 07                	jne    140002ee4 <_IsNonwritableInCurrentImage+0x5c>
   140002edd:	b8 00 00 00 00       	mov    $0x0,%eax
   140002ee2:	eb 0f                	jmp    140002ef3 <_IsNonwritableInCurrentImage+0x6b>
   140002ee4:	48 8b 45 e8          	mov    -0x18(%rbp),%rax
   140002ee8:	8b 40 24             	mov    0x24(%rax),%eax
   140002eeb:	f7 d0                	not    %eax
   140002eed:	c1 e8 1f             	shr    $0x1f,%eax
   140002ef0:	0f b6 c0             	movzbl %al,%eax
   140002ef3:	48 83 c4 40          	add    $0x40,%rsp
   140002ef7:	5d                   	pop    %rbp
   140002ef8:	c3                   	ret    

0000000140002ef9 <__mingw_enum_import_library_names>:
   140002ef9:	55                   	push   %rbp
   140002efa:	48 89 e5             	mov    %rsp,%rbp
   140002efd:	48 83 ec 50          	sub    $0x50,%rsp
   140002f01:	89 4d 10             	mov    %ecx,0x10(%rbp)
   140002f04:	48 8b 05 65 88 00 00 	mov    0x8865(%rip),%rax        # 14000b770 <.refptr.__image_base__>
   140002f0b:	48 89 45 f0          	mov    %rax,-0x10(%rbp)
   140002f0f:	48 8b 45 f0          	mov    -0x10(%rbp),%rax
   140002f13:	48 89 c1             	mov    %rax,%rcx
   140002f16:	e8 15 fc ff ff       	call   140002b30 <_ValidateImageBase>
   140002f1b:	85 c0                	test   %eax,%eax
   140002f1d:	75 0a                	jne    140002f29 <__mingw_enum_import_library_names+0x30>
   140002f1f:	b8 00 00 00 00       	mov    $0x0,%eax
   140002f24:	e9 ab 00 00 00       	jmp    140002fd4 <__mingw_enum_import_library_names+0xdb>
   140002f29:	48 8b 45 f0          	mov    -0x10(%rbp),%rax
   140002f2d:	8b 40 3c             	mov    0x3c(%rax),%eax
   140002f30:	48 63 d0             	movslq %eax,%rdx
   140002f33:	48 8b 45 f0          	mov    -0x10(%rbp),%rax
   140002f37:	48 01 d0             	add    %rdx,%rax
   140002f3a:	48 89 45 e8          	mov    %rax,-0x18(%rbp)
   140002f3e:	48 8b 45 e8          	mov    -0x18(%rbp),%rax
   140002f42:	8b 80 90 00 00 00    	mov    0x90(%rax),%eax
   140002f48:	89 45 e4             	mov    %eax,-0x1c(%rbp)
   140002f4b:	83 7d e4 00          	cmpl   $0x0,-0x1c(%rbp)
   140002f4f:	75 07                	jne    140002f58 <__mingw_enum_import_library_names+0x5f>
   140002f51:	b8 00 00 00 00       	mov    $0x0,%eax
   140002f56:	eb 7c                	jmp    140002fd4 <__mingw_enum_import_library_names+0xdb>
   140002f58:	8b 55 e4             	mov    -0x1c(%rbp),%edx
   140002f5b:	48 8b 45 f0          	mov    -0x10(%rbp),%rax
   140002f5f:	48 89 c1             	mov    %rax,%rcx
   140002f62:	e8 45 fc ff ff       	call   140002bac <_FindPESection>
   140002f67:	48 89 45 d8          	mov    %rax,-0x28(%rbp)
   140002f6b:	48 83 7d d8 00       	cmpq   $0x0,-0x28(%rbp)
   140002f70:	75 07                	jne    140002f79 <__mingw_enum_import_library_names+0x80>
   140002f72:	b8 00 00 00 00       	mov    $0x0,%eax
   140002f77:	eb 5b                	jmp    140002fd4 <__mingw_enum_import_library_names+0xdb>
   140002f79:	8b 55 e4             	mov    -0x1c(%rbp),%edx
   140002f7c:	48 8b 45 f0          	mov    -0x10(%rbp),%rax
   140002f80:	48 01 d0             	add    %rdx,%rax
   140002f83:	48 89 45 f8          	mov    %rax,-0x8(%rbp)
   140002f87:	48 83 7d f8 00       	cmpq   $0x0,-0x8(%rbp)
   140002f8c:	75 07                	jne    140002f95 <__mingw_enum_import_library_names+0x9c>
   140002f8e:	b8 00 00 00 00       	mov    $0x0,%eax
   140002f93:	eb 3f                	jmp    140002fd4 <__mingw_enum_import_library_names+0xdb>
   140002f95:	48 8b 45 f8          	mov    -0x8(%rbp),%rax
   140002f99:	8b 40 04             	mov    0x4(%rax),%eax
   140002f9c:	85 c0                	test   %eax,%eax
   140002f9e:	75 0b                	jne    140002fab <__mingw_enum_import_library_names+0xb2>
   140002fa0:	48 8b 45 f8          	mov    -0x8(%rbp),%rax
   140002fa4:	8b 40 0c             	mov    0xc(%rax),%eax
   140002fa7:	85 c0                	test   %eax,%eax
   140002fa9:	74 23                	je     140002fce <__mingw_enum_import_library_names+0xd5>
   140002fab:	83 7d 10 00          	cmpl   $0x0,0x10(%rbp)
   140002faf:	7f 12                	jg     140002fc3 <__mingw_enum_import_library_names+0xca>
   140002fb1:	48 8b 45 f8          	mov    -0x8(%rbp),%rax
   140002fb5:	8b 40 0c             	mov    0xc(%rax),%eax
   140002fb8:	89 c2                	mov    %eax,%edx
   140002fba:	48 8b 45 f0          	mov    -0x10(%rbp),%rax
   140002fbe:	48 01 d0             	add    %rdx,%rax
   140002fc1:	eb 11                	jmp    140002fd4 <__mingw_enum_import_library_names+0xdb>
   140002fc3:	83 6d 10 01          	subl   $0x1,0x10(%rbp)
   140002fc7:	48 83 45 f8 14       	addq   $0x14,-0x8(%rbp)
   140002fcc:	eb c7                	jmp    140002f95 <__mingw_enum_import_library_names+0x9c>
   140002fce:	90                   	nop
   140002fcf:	b8 00 00 00 00       	mov    $0x0,%eax
   140002fd4:	48 83 c4 50          	add    $0x50,%rsp
   140002fd8:	5d                   	pop    %rbp
   140002fd9:	c3                   	ret    
   140002fda:	90                   	nop
   140002fdb:	90                   	nop
   140002fdc:	90                   	nop
   140002fdd:	90                   	nop
   140002fde:	90                   	nop
   140002fdf:	90                   	nop

0000000140002fe0 <_Unwind_Resume>:
   140002fe0:	ff 25 e6 e2 00 00    	jmp    *0xe2e6(%rip)        # 1400112cc <__IAT_start__>
   140002fe6:	90                   	nop
   140002fe7:	90                   	nop
   140002fe8:	0f 1f 84 00 00 00 00 	nopl   0x0(%rax,%rax,1)
   140002fef:	00 

0000000140002ff0 <___chkstk_ms>:
R:\winlibs64_stage\gcc-11.2.0\build_mingw\x86_64-w64-mingw32\libgcc/../../../libgcc/config/i386/cygwin.S:117
   140002ff0:	51                   	push   %rcx
R:\winlibs64_stage\gcc-11.2.0\build_mingw\x86_64-w64-mingw32\libgcc/../../../libgcc/config/i386/cygwin.S:119
   140002ff1:	50                   	push   %rax
R:\winlibs64_stage\gcc-11.2.0\build_mingw\x86_64-w64-mingw32\libgcc/../../../libgcc/config/i386/cygwin.S:121
   140002ff2:	48 3d 00 10 00 00    	cmp    $0x1000,%rax
R:\winlibs64_stage\gcc-11.2.0\build_mingw\x86_64-w64-mingw32\libgcc/../../../libgcc/config/i386/cygwin.S:122
   140002ff8:	48 8d 4c 24 18       	lea    0x18(%rsp),%rcx
R:\winlibs64_stage\gcc-11.2.0\build_mingw\x86_64-w64-mingw32\libgcc/../../../libgcc/config/i386/cygwin.S:123
   140002ffd:	72 19                	jb     140003018 <___chkstk_ms+0x28>
R:\winlibs64_stage\gcc-11.2.0\build_mingw\x86_64-w64-mingw32\libgcc/../../../libgcc/config/i386/cygwin.S:125
   140002fff:	48 81 e9 00 10 00 00 	sub    $0x1000,%rcx
R:\winlibs64_stage\gcc-11.2.0\build_mingw\x86_64-w64-mingw32\libgcc/../../../libgcc/config/i386/cygwin.S:126
   140003006:	48 83 09 00          	orq    $0x0,(%rcx)
R:\winlibs64_stage\gcc-11.2.0\build_mingw\x86_64-w64-mingw32\libgcc/../../../libgcc/config/i386/cygwin.S:127
   14000300a:	48 2d 00 10 00 00    	sub    $0x1000,%rax
R:\winlibs64_stage\gcc-11.2.0\build_mingw\x86_64-w64-mingw32\libgcc/../../../libgcc/config/i386/cygwin.S:128
   140003010:	48 3d 00 10 00 00    	cmp    $0x1000,%rax
R:\winlibs64_stage\gcc-11.2.0\build_mingw\x86_64-w64-mingw32\libgcc/../../../libgcc/config/i386/cygwin.S:129
   140003016:	77 e7                	ja     140002fff <___chkstk_ms+0xf>
R:\winlibs64_stage\gcc-11.2.0\build_mingw\x86_64-w64-mingw32\libgcc/../../../libgcc/config/i386/cygwin.S:131
   140003018:	48 29 c1             	sub    %rax,%rcx
R:\winlibs64_stage\gcc-11.2.0\build_mingw\x86_64-w64-mingw32\libgcc/../../../libgcc/config/i386/cygwin.S:132
   14000301b:	48 83 09 00          	orq    $0x0,(%rcx)
R:\winlibs64_stage\gcc-11.2.0\build_mingw\x86_64-w64-mingw32\libgcc/../../../libgcc/config/i386/cygwin.S:134
   14000301f:	58                   	pop    %rax
R:\winlibs64_stage\gcc-11.2.0\build_mingw\x86_64-w64-mingw32\libgcc/../../../libgcc/config/i386/cygwin.S:136
   140003020:	59                   	pop    %rcx
R:\winlibs64_stage\gcc-11.2.0\build_mingw\x86_64-w64-mingw32\libgcc/../../../libgcc/config/i386/cygwin.S:138
   140003021:	c3                   	ret    
   140003022:	90                   	nop
   140003023:	90                   	nop
   140003024:	90                   	nop
   140003025:	90                   	nop
   140003026:	90                   	nop
   140003027:	90                   	nop
   140003028:	90                   	nop
   140003029:	90                   	nop
   14000302a:	90                   	nop
   14000302b:	90                   	nop
   14000302c:	90                   	nop
   14000302d:	90                   	nop
   14000302e:	90                   	nop
   14000302f:	90                   	nop

0000000140003030 <__mingw_vfprintf>:
   140003030:	55                   	push   %rbp
   140003031:	53                   	push   %rbx
   140003032:	48 83 ec 38          	sub    $0x38,%rsp
   140003036:	48 8d 6c 24 30       	lea    0x30(%rsp),%rbp
   14000303b:	48 89 4d 20          	mov    %rcx,0x20(%rbp)
   14000303f:	48 89 55 28          	mov    %rdx,0x28(%rbp)
   140003043:	4c 89 45 30          	mov    %r8,0x30(%rbp)
   140003047:	48 8b 4d 20          	mov    0x20(%rbp),%rcx
   14000304b:	e8 d0 5e 00 00       	call   140008f20 <_lock_file>
   140003050:	48 8b 55 28          	mov    0x28(%rbp),%rdx
   140003054:	48 8b 45 30          	mov    0x30(%rbp),%rax
   140003058:	48 89 44 24 20       	mov    %rax,0x20(%rsp)
   14000305d:	49 89 d1             	mov    %rdx,%r9
   140003060:	41 b8 00 00 00 00    	mov    $0x0,%r8d
   140003066:	48 8b 55 20          	mov    0x20(%rbp),%rdx
   14000306a:	b9 00 60 00 00       	mov    $0x6000,%ecx
   14000306f:	e8 eb 1d 00 00       	call   140004e5f <__mingw_pformat>
   140003074:	89 c3                	mov    %eax,%ebx
   140003076:	48 8b 4d 20          	mov    0x20(%rbp),%rcx
   14000307a:	e8 31 5f 00 00       	call   140008fb0 <_unlock_file>
   14000307f:	89 d8                	mov    %ebx,%eax
   140003081:	48 83 c4 38          	add    $0x38,%rsp
   140003085:	5b                   	pop    %rbx
   140003086:	5d                   	pop    %rbp
   140003087:	c3                   	ret    
   140003088:	90                   	nop
   140003089:	90                   	nop
   14000308a:	90                   	nop
   14000308b:	90                   	nop
   14000308c:	90                   	nop
   14000308d:	90                   	nop
   14000308e:	90                   	nop
   14000308f:	90                   	nop

0000000140003090 <__pformat_putc>:
   140003090:	55                   	push   %rbp
   140003091:	48 89 e5             	mov    %rsp,%rbp
   140003094:	48 83 ec 20          	sub    $0x20,%rsp
   140003098:	89 4d 10             	mov    %ecx,0x10(%rbp)
   14000309b:	48 89 55 18          	mov    %rdx,0x18(%rbp)
   14000309f:	48 8b 45 18          	mov    0x18(%rbp),%rax
   1400030a3:	8b 40 08             	mov    0x8(%rax),%eax
   1400030a6:	25 00 40 00 00       	and    $0x4000,%eax
   1400030ab:	85 c0                	test   %eax,%eax
   1400030ad:	75 12                	jne    1400030c1 <__pformat_putc+0x31>
   1400030af:	48 8b 45 18          	mov    0x18(%rbp),%rax
   1400030b3:	8b 50 28             	mov    0x28(%rax),%edx
   1400030b6:	48 8b 45 18          	mov    0x18(%rbp),%rax
   1400030ba:	8b 40 24             	mov    0x24(%rax),%eax
   1400030bd:	39 c2                	cmp    %eax,%edx
   1400030bf:	7e 3c                	jle    1400030fd <__pformat_putc+0x6d>
   1400030c1:	48 8b 45 18          	mov    0x18(%rbp),%rax
   1400030c5:	8b 40 08             	mov    0x8(%rax),%eax
   1400030c8:	25 00 20 00 00       	and    $0x2000,%eax
   1400030cd:	85 c0                	test   %eax,%eax
   1400030cf:	74 14                	je     1400030e5 <__pformat_putc+0x55>
   1400030d1:	48 8b 45 18          	mov    0x18(%rbp),%rax
   1400030d5:	48 8b 00             	mov    (%rax),%rax
   1400030d8:	48 89 c2             	mov    %rax,%rdx
   1400030db:	8b 4d 10             	mov    0x10(%rbp),%ecx
   1400030de:	e8 ad 56 00 00       	call   140008790 <fputc>
   1400030e3:	eb 18                	jmp    1400030fd <__pformat_putc+0x6d>
   1400030e5:	48 8b 45 18          	mov    0x18(%rbp),%rax
   1400030e9:	48 8b 10             	mov    (%rax),%rdx
   1400030ec:	48 8b 45 18          	mov    0x18(%rbp),%rax
   1400030f0:	8b 40 24             	mov    0x24(%rax),%eax
   1400030f3:	48 98                	cltq   
   1400030f5:	48 01 d0             	add    %rdx,%rax
   1400030f8:	8b 55 10             	mov    0x10(%rbp),%edx
   1400030fb:	88 10                	mov    %dl,(%rax)
   1400030fd:	48 8b 45 18          	mov    0x18(%rbp),%rax
   140003101:	8b 40 24             	mov    0x24(%rax),%eax
   140003104:	8d 50 01             	lea    0x1(%rax),%edx
   140003107:	48 8b 45 18          	mov    0x18(%rbp),%rax
   14000310b:	89 50 24             	mov    %edx,0x24(%rax)
   14000310e:	90                   	nop
   14000310f:	48 83 c4 20          	add    $0x20,%rsp
   140003113:	5d                   	pop    %rbp
   140003114:	c3                   	ret    

0000000140003115 <__pformat_putchars>:
   140003115:	55                   	push   %rbp
   140003116:	48 89 e5             	mov    %rsp,%rbp
   140003119:	48 83 ec 20          	sub    $0x20,%rsp
   14000311d:	48 89 4d 10          	mov    %rcx,0x10(%rbp)
   140003121:	89 55 18             	mov    %edx,0x18(%rbp)
   140003124:	4c 89 45 20          	mov    %r8,0x20(%rbp)
   140003128:	48 8b 45 20          	mov    0x20(%rbp),%rax
   14000312c:	8b 40 10             	mov    0x10(%rax),%eax
   14000312f:	85 c0                	test   %eax,%eax
   140003131:	78 16                	js     140003149 <__pformat_putchars+0x34>
   140003133:	48 8b 45 20          	mov    0x20(%rbp),%rax
   140003137:	8b 40 10             	mov    0x10(%rax),%eax
   14000313a:	39 45 18             	cmp    %eax,0x18(%rbp)
   14000313d:	7e 0a                	jle    140003149 <__pformat_putchars+0x34>
   14000313f:	48 8b 45 20          	mov    0x20(%rbp),%rax
   140003143:	8b 40 10             	mov    0x10(%rax),%eax
   140003146:	89 45 18             	mov    %eax,0x18(%rbp)
   140003149:	48 8b 45 20          	mov    0x20(%rbp),%rax
   14000314d:	8b 40 0c             	mov    0xc(%rax),%eax
   140003150:	39 45 18             	cmp    %eax,0x18(%rbp)
   140003153:	7d 15                	jge    14000316a <__pformat_putchars+0x55>
   140003155:	48 8b 45 20          	mov    0x20(%rbp),%rax
   140003159:	8b 40 0c             	mov    0xc(%rax),%eax
   14000315c:	2b 45 18             	sub    0x18(%rbp),%eax
   14000315f:	89 c2                	mov    %eax,%edx
   140003161:	48 8b 45 20          	mov    0x20(%rbp),%rax
   140003165:	89 50 0c             	mov    %edx,0xc(%rax)
   140003168:	eb 0b                	jmp    140003175 <__pformat_putchars+0x60>
   14000316a:	48 8b 45 20          	mov    0x20(%rbp),%rax
   14000316e:	c7 40 0c ff ff ff ff 	movl   $0xffffffff,0xc(%rax)
   140003175:	48 8b 45 20          	mov    0x20(%rbp),%rax
   140003179:	8b 40 0c             	mov    0xc(%rax),%eax
   14000317c:	85 c0                	test   %eax,%eax
   14000317e:	7e 57                	jle    1400031d7 <__pformat_putchars+0xc2>
   140003180:	48 8b 45 20          	mov    0x20(%rbp),%rax
   140003184:	8b 40 08             	mov    0x8(%rax),%eax
   140003187:	25 00 04 00 00       	and    $0x400,%eax
   14000318c:	85 c0                	test   %eax,%eax
   14000318e:	75 47                	jne    1400031d7 <__pformat_putchars+0xc2>
   140003190:	eb 11                	jmp    1400031a3 <__pformat_putchars+0x8e>
   140003192:	48 8b 45 20          	mov    0x20(%rbp),%rax
   140003196:	48 89 c2             	mov    %rax,%rdx
   140003199:	b9 20 00 00 00       	mov    $0x20,%ecx
   14000319e:	e8 ed fe ff ff       	call   140003090 <__pformat_putc>
   1400031a3:	48 8b 45 20          	mov    0x20(%rbp),%rax
   1400031a7:	8b 40 0c             	mov    0xc(%rax),%eax
   1400031aa:	8d 48 ff             	lea    -0x1(%rax),%ecx
   1400031ad:	48 8b 55 20          	mov    0x20(%rbp),%rdx
   1400031b1:	89 4a 0c             	mov    %ecx,0xc(%rdx)
   1400031b4:	85 c0                	test   %eax,%eax
   1400031b6:	75 da                	jne    140003192 <__pformat_putchars+0x7d>
   1400031b8:	eb 1d                	jmp    1400031d7 <__pformat_putchars+0xc2>
   1400031ba:	48 8b 45 10          	mov    0x10(%rbp),%rax
   1400031be:	48 8d 50 01          	lea    0x1(%rax),%rdx
   1400031c2:	48 89 55 10          	mov    %rdx,0x10(%rbp)
   1400031c6:	0f b6 00             	movzbl (%rax),%eax
   1400031c9:	0f be c0             	movsbl %al,%eax
   1400031cc:	48 8b 55 20          	mov    0x20(%rbp),%rdx
   1400031d0:	89 c1                	mov    %eax,%ecx
   1400031d2:	e8 b9 fe ff ff       	call   140003090 <__pformat_putc>
   1400031d7:	8b 45 18             	mov    0x18(%rbp),%eax
   1400031da:	8d 50 ff             	lea    -0x1(%rax),%edx
   1400031dd:	89 55 18             	mov    %edx,0x18(%rbp)
   1400031e0:	85 c0                	test   %eax,%eax
   1400031e2:	75 d6                	jne    1400031ba <__pformat_putchars+0xa5>
   1400031e4:	eb 11                	jmp    1400031f7 <__pformat_putchars+0xe2>
   1400031e6:	48 8b 45 20          	mov    0x20(%rbp),%rax
   1400031ea:	48 89 c2             	mov    %rax,%rdx
   1400031ed:	b9 20 00 00 00       	mov    $0x20,%ecx
   1400031f2:	e8 99 fe ff ff       	call   140003090 <__pformat_putc>
   1400031f7:	48 8b 45 20          	mov    0x20(%rbp),%rax
   1400031fb:	8b 40 0c             	mov    0xc(%rax),%eax
   1400031fe:	8d 48 ff             	lea    -0x1(%rax),%ecx
   140003201:	48 8b 55 20          	mov    0x20(%rbp),%rdx
   140003205:	89 4a 0c             	mov    %ecx,0xc(%rdx)
   140003208:	85 c0                	test   %eax,%eax
   14000320a:	7f da                	jg     1400031e6 <__pformat_putchars+0xd1>
   14000320c:	90                   	nop
   14000320d:	90                   	nop
   14000320e:	48 83 c4 20          	add    $0x20,%rsp
   140003212:	5d                   	pop    %rbp
   140003213:	c3                   	ret    

0000000140003214 <__pformat_puts>:
   140003214:	55                   	push   %rbp
   140003215:	48 89 e5             	mov    %rsp,%rbp
   140003218:	48 83 ec 20          	sub    $0x20,%rsp
   14000321c:	48 89 4d 10          	mov    %rcx,0x10(%rbp)
   140003220:	48 89 55 18          	mov    %rdx,0x18(%rbp)
   140003224:	48 83 7d 10 00       	cmpq   $0x0,0x10(%rbp)
   140003229:	75 0b                	jne    140003236 <__pformat_puts+0x22>
   14000322b:	48 8d 05 2e 81 00 00 	lea    0x812e(%rip),%rax        # 14000b360 <.rdata>
   140003232:	48 89 45 10          	mov    %rax,0x10(%rbp)
   140003236:	48 8b 45 18          	mov    0x18(%rbp),%rax
   14000323a:	8b 40 10             	mov    0x10(%rax),%eax
   14000323d:	85 c0                	test   %eax,%eax
   14000323f:	78 29                	js     14000326a <__pformat_puts+0x56>
   140003241:	48 8b 45 18          	mov    0x18(%rbp),%rax
   140003245:	8b 40 10             	mov    0x10(%rax),%eax
   140003248:	48 98                	cltq   
   14000324a:	48 89 c2             	mov    %rax,%rdx
   14000324d:	48 8b 4d 10          	mov    0x10(%rbp),%rcx
   140003251:	e8 3a 54 00 00       	call   140008690 <strnlen>
   140003256:	89 c2                	mov    %eax,%edx
   140003258:	48 8b 45 18          	mov    0x18(%rbp),%rax
   14000325c:	49 89 c0             	mov    %rax,%r8
   14000325f:	48 8b 4d 10          	mov    0x10(%rbp),%rcx
   140003263:	e8 ad fe ff ff       	call   140003115 <__pformat_putchars>
   140003268:	eb 1b                	jmp    140003285 <__pformat_puts+0x71>
   14000326a:	48 8b 4d 10          	mov    0x10(%rbp),%rcx
   14000326e:	e8 d5 54 00 00       	call   140008748 <strlen>
   140003273:	89 c2                	mov    %eax,%edx
   140003275:	48 8b 45 18          	mov    0x18(%rbp),%rax
   140003279:	49 89 c0             	mov    %rax,%r8
   14000327c:	48 8b 4d 10          	mov    0x10(%rbp),%rcx
   140003280:	e8 90 fe ff ff       	call   140003115 <__pformat_putchars>
   140003285:	90                   	nop
   140003286:	48 83 c4 20          	add    $0x20,%rsp
   14000328a:	5d                   	pop    %rbp
   14000328b:	c3                   	ret    

000000014000328c <__pformat_wputchars>:
   14000328c:	55                   	push   %rbp
   14000328d:	48 89 e5             	mov    %rsp,%rbp
   140003290:	48 83 ec 50          	sub    $0x50,%rsp
   140003294:	48 89 4d 10          	mov    %rcx,0x10(%rbp)
   140003298:	89 55 18             	mov    %edx,0x18(%rbp)
   14000329b:	4c 89 45 20          	mov    %r8,0x20(%rbp)
   14000329f:	48 8d 55 d8          	lea    -0x28(%rbp),%rdx
   1400032a3:	48 8d 45 e0          	lea    -0x20(%rbp),%rax
   1400032a7:	49 89 d0             	mov    %rdx,%r8
   1400032aa:	ba 00 00 00 00       	mov    $0x0,%edx
   1400032af:	48 89 c1             	mov    %rax,%rcx
   1400032b2:	e8 39 5a 00 00       	call   140008cf0 <wcrtomb>
   1400032b7:	89 45 fc             	mov    %eax,-0x4(%rbp)
   1400032ba:	48 8b 45 20          	mov    0x20(%rbp),%rax
   1400032be:	8b 40 10             	mov    0x10(%rax),%eax
   1400032c1:	85 c0                	test   %eax,%eax
   1400032c3:	78 16                	js     1400032db <__pformat_wputchars+0x4f>
   1400032c5:	48 8b 45 20          	mov    0x20(%rbp),%rax
   1400032c9:	8b 40 10             	mov    0x10(%rax),%eax
   1400032cc:	39 45 18             	cmp    %eax,0x18(%rbp)
   1400032cf:	7e 0a                	jle    1400032db <__pformat_wputchars+0x4f>
   1400032d1:	48 8b 45 20          	mov    0x20(%rbp),%rax
   1400032d5:	8b 40 10             	mov    0x10(%rax),%eax
   1400032d8:	89 45 18             	mov    %eax,0x18(%rbp)
   1400032db:	48 8b 45 20          	mov    0x20(%rbp),%rax
   1400032df:	8b 40 0c             	mov    0xc(%rax),%eax
   1400032e2:	39 45 18             	cmp    %eax,0x18(%rbp)
   1400032e5:	7d 15                	jge    1400032fc <__pformat_wputchars+0x70>
   1400032e7:	48 8b 45 20          	mov    0x20(%rbp),%rax
   1400032eb:	8b 40 0c             	mov    0xc(%rax),%eax
   1400032ee:	2b 45 18             	sub    0x18(%rbp),%eax
   1400032f1:	89 c2                	mov    %eax,%edx
   1400032f3:	48 8b 45 20          	mov    0x20(%rbp),%rax
   1400032f7:	89 50 0c             	mov    %edx,0xc(%rax)
   1400032fa:	eb 0b                	jmp    140003307 <__pformat_wputchars+0x7b>
   1400032fc:	48 8b 45 20          	mov    0x20(%rbp),%rax
   140003300:	c7 40 0c ff ff ff ff 	movl   $0xffffffff,0xc(%rax)
   140003307:	48 8b 45 20          	mov    0x20(%rbp),%rax
   14000330b:	8b 40 0c             	mov    0xc(%rax),%eax
   14000330e:	85 c0                	test   %eax,%eax
   140003310:	7e 6e                	jle    140003380 <__pformat_wputchars+0xf4>
   140003312:	48 8b 45 20          	mov    0x20(%rbp),%rax
   140003316:	8b 40 08             	mov    0x8(%rax),%eax
   140003319:	25 00 04 00 00       	and    $0x400,%eax
   14000331e:	85 c0                	test   %eax,%eax
   140003320:	75 5e                	jne    140003380 <__pformat_wputchars+0xf4>
   140003322:	eb 11                	jmp    140003335 <__pformat_wputchars+0xa9>
   140003324:	48 8b 45 20          	mov    0x20(%rbp),%rax
   140003328:	48 89 c2             	mov    %rax,%rdx
   14000332b:	b9 20 00 00 00       	mov    $0x20,%ecx
   140003330:	e8 5b fd ff ff       	call   140003090 <__pformat_putc>
   140003335:	48 8b 45 20          	mov    0x20(%rbp),%rax
   140003339:	8b 40 0c             	mov    0xc(%rax),%eax
   14000333c:	8d 48 ff             	lea    -0x1(%rax),%ecx
   14000333f:	48 8b 55 20          	mov    0x20(%rbp),%rdx
   140003343:	89 4a 0c             	mov    %ecx,0xc(%rdx)
   140003346:	85 c0                	test   %eax,%eax
   140003348:	75 da                	jne    140003324 <__pformat_wputchars+0x98>
   14000334a:	eb 34                	jmp    140003380 <__pformat_wputchars+0xf4>
   14000334c:	48 8d 45 e0          	lea    -0x20(%rbp),%rax
   140003350:	48 89 45 f0          	mov    %rax,-0x10(%rbp)
   140003354:	eb 1d                	jmp    140003373 <__pformat_wputchars+0xe7>
   140003356:	48 8b 45 f0          	mov    -0x10(%rbp),%rax
   14000335a:	48 8d 50 01          	lea    0x1(%rax),%rdx
   14000335e:	48 89 55 f0          	mov    %rdx,-0x10(%rbp)
   140003362:	0f b6 00             	movzbl (%rax),%eax
   140003365:	0f be c0             	movsbl %al,%eax
   140003368:	48 8b 55 20          	mov    0x20(%rbp),%rdx
   14000336c:	89 c1                	mov    %eax,%ecx
   14000336e:	e8 1d fd ff ff       	call   140003090 <__pformat_putc>
   140003373:	8b 45 fc             	mov    -0x4(%rbp),%eax
   140003376:	8d 50 ff             	lea    -0x1(%rax),%edx
   140003379:	89 55 fc             	mov    %edx,-0x4(%rbp)
   14000337c:	85 c0                	test   %eax,%eax
   14000337e:	7f d6                	jg     140003356 <__pformat_wputchars+0xca>
   140003380:	8b 45 18             	mov    0x18(%rbp),%eax
   140003383:	8d 50 ff             	lea    -0x1(%rax),%edx
   140003386:	89 55 18             	mov    %edx,0x18(%rbp)
   140003389:	85 c0                	test   %eax,%eax
   14000338b:	7e 41                	jle    1400033ce <__pformat_wputchars+0x142>
   14000338d:	48 8b 45 10          	mov    0x10(%rbp),%rax
   140003391:	48 8d 50 02          	lea    0x2(%rax),%rdx
   140003395:	48 89 55 10          	mov    %rdx,0x10(%rbp)
   140003399:	0f b7 00             	movzwl (%rax),%eax
   14000339c:	0f b7 d0             	movzwl %ax,%edx
   14000339f:	48 8d 4d d8          	lea    -0x28(%rbp),%rcx
   1400033a3:	48 8d 45 e0          	lea    -0x20(%rbp),%rax
   1400033a7:	49 89 c8             	mov    %rcx,%r8
   1400033aa:	48 89 c1             	mov    %rax,%rcx
   1400033ad:	e8 3e 59 00 00       	call   140008cf0 <wcrtomb>
   1400033b2:	89 45 fc             	mov    %eax,-0x4(%rbp)
   1400033b5:	83 7d fc 00          	cmpl   $0x0,-0x4(%rbp)
   1400033b9:	7f 91                	jg     14000334c <__pformat_wputchars+0xc0>
   1400033bb:	eb 11                	jmp    1400033ce <__pformat_wputchars+0x142>
   1400033bd:	48 8b 45 20          	mov    0x20(%rbp),%rax
   1400033c1:	48 89 c2             	mov    %rax,%rdx
   1400033c4:	b9 20 00 00 00       	mov    $0x20,%ecx
   1400033c9:	e8 c2 fc ff ff       	call   140003090 <__pformat_putc>
   1400033ce:	48 8b 45 20          	mov    0x20(%rbp),%rax
   1400033d2:	8b 40 0c             	mov    0xc(%rax),%eax
   1400033d5:	8d 48 ff             	lea    -0x1(%rax),%ecx
   1400033d8:	48 8b 55 20          	mov    0x20(%rbp),%rdx
   1400033dc:	89 4a 0c             	mov    %ecx,0xc(%rdx)
   1400033df:	85 c0                	test   %eax,%eax
   1400033e1:	7f da                	jg     1400033bd <__pformat_wputchars+0x131>
   1400033e3:	90                   	nop
   1400033e4:	90                   	nop
   1400033e5:	48 83 c4 50          	add    $0x50,%rsp
   1400033e9:	5d                   	pop    %rbp
   1400033ea:	c3                   	ret    

00000001400033eb <__pformat_wcputs>:
   1400033eb:	55                   	push   %rbp
   1400033ec:	48 89 e5             	mov    %rsp,%rbp
   1400033ef:	48 83 ec 20          	sub    $0x20,%rsp
   1400033f3:	48 89 4d 10          	mov    %rcx,0x10(%rbp)
   1400033f7:	48 89 55 18          	mov    %rdx,0x18(%rbp)
   1400033fb:	48 83 7d 10 00       	cmpq   $0x0,0x10(%rbp)
   140003400:	75 0b                	jne    14000340d <__pformat_wcputs+0x22>
   140003402:	48 8d 05 5f 7f 00 00 	lea    0x7f5f(%rip),%rax        # 14000b368 <.rdata+0x8>
   140003409:	48 89 45 10          	mov    %rax,0x10(%rbp)
   14000340d:	48 8b 45 18          	mov    0x18(%rbp),%rax
   140003411:	8b 40 10             	mov    0x10(%rax),%eax
   140003414:	85 c0                	test   %eax,%eax
   140003416:	78 29                	js     140003441 <__pformat_wcputs+0x56>
   140003418:	48 8b 45 18          	mov    0x18(%rbp),%rax
   14000341c:	8b 40 10             	mov    0x10(%rax),%eax
   14000341f:	48 98                	cltq   
   140003421:	48 89 c2             	mov    %rax,%rdx
   140003424:	48 8b 4d 10          	mov    0x10(%rbp),%rcx
   140003428:	e8 b3 52 00 00       	call   1400086e0 <wcsnlen>
   14000342d:	89 c2                	mov    %eax,%edx
   14000342f:	48 8b 45 18          	mov    0x18(%rbp),%rax
   140003433:	49 89 c0             	mov    %rax,%r8
   140003436:	48 8b 4d 10          	mov    0x10(%rbp),%rcx
   14000343a:	e8 4d fe ff ff       	call   14000328c <__pformat_wputchars>
   14000343f:	eb 1b                	jmp    14000345c <__pformat_wcputs+0x71>
   140003441:	48 8b 4d 10          	mov    0x10(%rbp),%rcx
   140003445:	e8 e6 52 00 00       	call   140008730 <wcslen>
   14000344a:	89 c2                	mov    %eax,%edx
   14000344c:	48 8b 45 18          	mov    0x18(%rbp),%rax
   140003450:	49 89 c0             	mov    %rax,%r8
   140003453:	48 8b 4d 10          	mov    0x10(%rbp),%rcx
   140003457:	e8 30 fe ff ff       	call   14000328c <__pformat_wputchars>
   14000345c:	90                   	nop
   14000345d:	48 83 c4 20          	add    $0x20,%rsp
   140003461:	5d                   	pop    %rbp
   140003462:	c3                   	ret    

0000000140003463 <__pformat_int_bufsiz>:
   140003463:	55                   	push   %rbp
   140003464:	48 89 e5             	mov    %rsp,%rbp
   140003467:	89 4d 10             	mov    %ecx,0x10(%rbp)
   14000346a:	89 55 18             	mov    %edx,0x18(%rbp)
   14000346d:	4c 89 45 20          	mov    %r8,0x20(%rbp)
   140003471:	8b 45 18             	mov    0x18(%rbp),%eax
   140003474:	83 e8 01             	sub    $0x1,%eax
   140003477:	48 98                	cltq   
   140003479:	48 83 c0 40          	add    $0x40,%rax
   14000347d:	8b 55 18             	mov    0x18(%rbp),%edx
   140003480:	48 63 ca             	movslq %edx,%rcx
   140003483:	ba 00 00 00 00       	mov    $0x0,%edx
   140003488:	48 f7 f1             	div    %rcx
   14000348b:	89 c2                	mov    %eax,%edx
   14000348d:	8b 45 10             	mov    0x10(%rbp),%eax
   140003490:	01 d0                	add    %edx,%eax
   140003492:	89 45 18             	mov    %eax,0x18(%rbp)
   140003495:	48 8b 45 20          	mov    0x20(%rbp),%rax
   140003499:	8b 40 10             	mov    0x10(%rax),%eax
   14000349c:	ba 00 00 00 00       	mov    $0x0,%edx
   1400034a1:	85 c0                	test   %eax,%eax
   1400034a3:	0f 48 c2             	cmovs  %edx,%eax
   1400034a6:	01 45 18             	add    %eax,0x18(%rbp)
   1400034a9:	48 8b 45 20          	mov    0x20(%rbp),%rax
   1400034ad:	8b 40 08             	mov    0x8(%rax),%eax
   1400034b0:	25 00 10 00 00       	and    $0x1000,%eax
   1400034b5:	85 c0                	test   %eax,%eax
   1400034b7:	74 2a                	je     1400034e3 <__pformat_int_bufsiz+0x80>
   1400034b9:	48 8b 45 20          	mov    0x20(%rbp),%rax
   1400034bd:	0f b7 40 20          	movzwl 0x20(%rax),%eax
   1400034c1:	66 85 c0             	test   %ax,%ax
   1400034c4:	74 1d                	je     1400034e3 <__pformat_int_bufsiz+0x80>
   1400034c6:	8b 45 18             	mov    0x18(%rbp),%eax
   1400034c9:	48 63 d0             	movslq %eax,%rdx
   1400034cc:	48 69 d2 56 55 55 55 	imul   $0x55555556,%rdx,%rdx
   1400034d3:	48 c1 ea 20          	shr    $0x20,%rdx
   1400034d7:	c1 f8 1f             	sar    $0x1f,%eax
   1400034da:	89 c1                	mov    %eax,%ecx
   1400034dc:	89 d0                	mov    %edx,%eax
   1400034de:	29 c8                	sub    %ecx,%eax
   1400034e0:	01 45 18             	add    %eax,0x18(%rbp)
   1400034e3:	48 8b 45 20          	mov    0x20(%rbp),%rax
   1400034e7:	8b 50 0c             	mov    0xc(%rax),%edx
   1400034ea:	8b 45 18             	mov    0x18(%rbp),%eax
   1400034ed:	39 c2                	cmp    %eax,%edx
   1400034ef:	0f 4d c2             	cmovge %edx,%eax
   1400034f2:	5d                   	pop    %rbp
   1400034f3:	c3                   	ret    

00000001400034f4 <__pformat_int>:
   1400034f4:	55                   	push   %rbp
   1400034f5:	53                   	push   %rbx
   1400034f6:	48 83 ec 58          	sub    $0x58,%rsp
   1400034fa:	48 8d 6c 24 50       	lea    0x50(%rsp),%rbp
   1400034ff:	48 89 cb             	mov    %rcx,%rbx
   140003502:	48 8b 0b             	mov    (%rbx),%rcx
   140003505:	48 8b 5b 08          	mov    0x8(%rbx),%rbx
   140003509:	48 89 4d d0          	mov    %rcx,-0x30(%rbp)
   14000350d:	48 89 5d d8          	mov    %rbx,-0x28(%rbp)
   140003511:	48 89 55 28          	mov    %rdx,0x28(%rbp)
   140003515:	48 8b 45 28          	mov    0x28(%rbp),%rax
   140003519:	49 89 c0             	mov    %rax,%r8
   14000351c:	ba 03 00 00 00       	mov    $0x3,%edx
   140003521:	b9 01 00 00 00       	mov    $0x1,%ecx
   140003526:	e8 38 ff ff ff       	call   140003463 <__pformat_int_bufsiz>
   14000352b:	89 45 f0             	mov    %eax,-0x10(%rbp)
   14000352e:	48 c7 45 e8 00 00 00 	movq   $0x0,-0x18(%rbp)
   140003535:	00 
   140003536:	8b 45 f0             	mov    -0x10(%rbp),%eax
   140003539:	48 98                	cltq   
   14000353b:	48 83 c0 0f          	add    $0xf,%rax
   14000353f:	48 c1 e8 04          	shr    $0x4,%rax
   140003543:	48 c1 e0 04          	shl    $0x4,%rax
   140003547:	e8 a4 fa ff ff       	call   140002ff0 <___chkstk_ms>
   14000354c:	48 29 c4             	sub    %rax,%rsp
   14000354f:	48 8d 44 24 20       	lea    0x20(%rsp),%rax
   140003554:	48 83 c0 0f          	add    $0xf,%rax
   140003558:	48 c1 e8 04          	shr    $0x4,%rax
   14000355c:	48 c1 e0 04          	shl    $0x4,%rax
   140003560:	48 89 45 e8          	mov    %rax,-0x18(%rbp)
   140003564:	48 8b 45 e8          	mov    -0x18(%rbp),%rax
   140003568:	48 89 45 f8          	mov    %rax,-0x8(%rbp)
   14000356c:	48 8b 45 28          	mov    0x28(%rbp),%rax
   140003570:	8b 40 08             	mov    0x8(%rax),%eax
   140003573:	25 80 00 00 00       	and    $0x80,%eax
   140003578:	85 c0                	test   %eax,%eax
   14000357a:	0f 84 df 00 00 00    	je     14000365f <__pformat_int+0x16b>
   140003580:	48 8b 45 d0          	mov    -0x30(%rbp),%rax
   140003584:	48 85 c0             	test   %rax,%rax
   140003587:	79 10                	jns    140003599 <__pformat_int+0xa5>
   140003589:	48 8b 45 d0          	mov    -0x30(%rbp),%rax
   14000358d:	48 f7 d8             	neg    %rax
   140003590:	48 89 45 d0          	mov    %rax,-0x30(%rbp)
   140003594:	e9 c6 00 00 00       	jmp    14000365f <__pformat_int+0x16b>
   140003599:	48 8b 45 28          	mov    0x28(%rbp),%rax
   14000359d:	8b 40 08             	mov    0x8(%rax),%eax
   1400035a0:	24 7f                	and    $0x7f,%al
   1400035a2:	89 c2                	mov    %eax,%edx
   1400035a4:	48 8b 45 28          	mov    0x28(%rbp),%rax
   1400035a8:	89 50 08             	mov    %edx,0x8(%rax)
   1400035ab:	e9 af 00 00 00       	jmp    14000365f <__pformat_int+0x16b>
   1400035b0:	48 8b 45 f8          	mov    -0x8(%rbp),%rax
   1400035b4:	48 3b 45 e8          	cmp    -0x18(%rbp),%rax
   1400035b8:	74 49                	je     140003603 <__pformat_int+0x10f>
   1400035ba:	48 8b 45 28          	mov    0x28(%rbp),%rax
   1400035be:	8b 40 08             	mov    0x8(%rax),%eax
   1400035c1:	25 00 10 00 00       	and    $0x1000,%eax
   1400035c6:	85 c0                	test   %eax,%eax
   1400035c8:	74 39                	je     140003603 <__pformat_int+0x10f>
   1400035ca:	48 8b 45 28          	mov    0x28(%rbp),%rax
   1400035ce:	0f b7 40 20          	movzwl 0x20(%rax),%eax
   1400035d2:	66 85 c0             	test   %ax,%ax
   1400035d5:	74 2c                	je     140003603 <__pformat_int+0x10f>
   1400035d7:	48 8b 45 f8          	mov    -0x8(%rbp),%rax
   1400035db:	48 2b 45 e8          	sub    -0x18(%rbp),%rax
   1400035df:	48 99                	cqto   
   1400035e1:	48 c1 ea 3e          	shr    $0x3e,%rdx
   1400035e5:	48 01 d0             	add    %rdx,%rax
   1400035e8:	83 e0 03             	and    $0x3,%eax
   1400035eb:	48 29 d0             	sub    %rdx,%rax
   1400035ee:	48 83 f8 03          	cmp    $0x3,%rax
   1400035f2:	75 0f                	jne    140003603 <__pformat_int+0x10f>
   1400035f4:	48 8b 45 f8          	mov    -0x8(%rbp),%rax
   1400035f8:	48 8d 50 01          	lea    0x1(%rax),%rdx
   1400035fc:	48 89 55 f8          	mov    %rdx,-0x8(%rbp)
   140003600:	c6 00 2c             	movb   $0x2c,(%rax)
   140003603:	48 8b 4d d0          	mov    -0x30(%rbp),%rcx
   140003607:	48 ba cd cc cc cc cc 	movabs $0xcccccccccccccccd,%rdx
   14000360e:	cc cc cc 
   140003611:	48 89 c8             	mov    %rcx,%rax
   140003614:	48 f7 e2             	mul    %rdx
   140003617:	48 c1 ea 03          	shr    $0x3,%rdx
   14000361b:	48 89 d0             	mov    %rdx,%rax
   14000361e:	48 c1 e0 02          	shl    $0x2,%rax
   140003622:	48 01 d0             	add    %rdx,%rax
   140003625:	48 01 c0             	add    %rax,%rax
   140003628:	48 29 c1             	sub    %rax,%rcx
   14000362b:	48 89 ca             	mov    %rcx,%rdx
   14000362e:	89 d0                	mov    %edx,%eax
   140003630:	8d 48 30             	lea    0x30(%rax),%ecx
   140003633:	48 8b 45 f8          	mov    -0x8(%rbp),%rax
   140003637:	48 8d 50 01          	lea    0x1(%rax),%rdx
   14000363b:	48 89 55 f8          	mov    %rdx,-0x8(%rbp)
   14000363f:	89 ca                	mov    %ecx,%edx
   140003641:	88 10                	mov    %dl,(%rax)
   140003643:	48 8b 45 d0          	mov    -0x30(%rbp),%rax
   140003647:	48 ba cd cc cc cc cc 	movabs $0xcccccccccccccccd,%rdx
   14000364e:	cc cc cc 
   140003651:	48 f7 e2             	mul    %rdx
   140003654:	48 89 d0             	mov    %rdx,%rax
   140003657:	48 c1 e8 03          	shr    $0x3,%rax
   14000365b:	48 89 45 d0          	mov    %rax,-0x30(%rbp)
   14000365f:	48 8b 45 d0          	mov    -0x30(%rbp),%rax
   140003663:	48 85 c0             	test   %rax,%rax
   140003666:	0f 85 44 ff ff ff    	jne    1400035b0 <__pformat_int+0xbc>
   14000366c:	48 8b 45 28          	mov    0x28(%rbp),%rax
   140003670:	8b 40 10             	mov    0x10(%rax),%eax
   140003673:	85 c0                	test   %eax,%eax
   140003675:	7e 3e                	jle    1400036b5 <__pformat_int+0x1c1>
   140003677:	48 8b 45 28          	mov    0x28(%rbp),%rax
   14000367b:	8b 40 10             	mov    0x10(%rax),%eax
   14000367e:	89 c2                	mov    %eax,%edx
   140003680:	48 8b 45 f8          	mov    -0x8(%rbp),%rax
   140003684:	48 2b 45 e8          	sub    -0x18(%rbp),%rax
   140003688:	89 c1                	mov    %eax,%ecx
   14000368a:	89 d0                	mov    %edx,%eax
   14000368c:	29 c8                	sub    %ecx,%eax
   14000368e:	89 45 f4             	mov    %eax,-0xc(%rbp)
   140003691:	83 7d f4 00          	cmpl   $0x0,-0xc(%rbp)
   140003695:	7e 1e                	jle    1400036b5 <__pformat_int+0x1c1>
   140003697:	eb 0f                	jmp    1400036a8 <__pformat_int+0x1b4>
   140003699:	48 8b 45 f8          	mov    -0x8(%rbp),%rax
   14000369d:	48 8d 50 01          	lea    0x1(%rax),%rdx
   1400036a1:	48 89 55 f8          	mov    %rdx,-0x8(%rbp)
   1400036a5:	c6 00 30             	movb   $0x30,(%rax)
   1400036a8:	8b 45 f4             	mov    -0xc(%rbp),%eax
   1400036ab:	8d 50 ff             	lea    -0x1(%rax),%edx
   1400036ae:	89 55 f4             	mov    %edx,-0xc(%rbp)
   1400036b1:	85 c0                	test   %eax,%eax
   1400036b3:	7f e4                	jg     140003699 <__pformat_int+0x1a5>
   1400036b5:	48 8b 45 f8          	mov    -0x8(%rbp),%rax
   1400036b9:	48 3b 45 e8          	cmp    -0x18(%rbp),%rax
   1400036bd:	75 1a                	jne    1400036d9 <__pformat_int+0x1e5>
   1400036bf:	48 8b 45 28          	mov    0x28(%rbp),%rax
   1400036c3:	8b 40 10             	mov    0x10(%rax),%eax
   1400036c6:	85 c0                	test   %eax,%eax
   1400036c8:	74 0f                	je     1400036d9 <__pformat_int+0x1e5>
   1400036ca:	48 8b 45 f8          	mov    -0x8(%rbp),%rax
   1400036ce:	48 8d 50 01          	lea    0x1(%rax),%rdx
   1400036d2:	48 89 55 f8          	mov    %rdx,-0x8(%rbp)
   1400036d6:	c6 00 30             	movb   $0x30,(%rax)
   1400036d9:	48 8b 45 28          	mov    0x28(%rbp),%rax
   1400036dd:	8b 40 0c             	mov    0xc(%rax),%eax
   1400036e0:	85 c0                	test   %eax,%eax
   1400036e2:	0f 8e ce 00 00 00    	jle    1400037b6 <__pformat_int+0x2c2>
   1400036e8:	48 8b 45 28          	mov    0x28(%rbp),%rax
   1400036ec:	8b 40 0c             	mov    0xc(%rax),%eax
   1400036ef:	89 c2                	mov    %eax,%edx
   1400036f1:	48 8b 45 f8          	mov    -0x8(%rbp),%rax
   1400036f5:	48 2b 45 e8          	sub    -0x18(%rbp),%rax
   1400036f9:	89 c1                	mov    %eax,%ecx
   1400036fb:	89 d0                	mov    %edx,%eax
   1400036fd:	29 c8                	sub    %ecx,%eax
   1400036ff:	89 c2                	mov    %eax,%edx
   140003701:	48 8b 45 28          	mov    0x28(%rbp),%rax
   140003705:	89 50 0c             	mov    %edx,0xc(%rax)
   140003708:	48 8b 45 28          	mov    0x28(%rbp),%rax
   14000370c:	8b 40 0c             	mov    0xc(%rax),%eax
   14000370f:	85 c0                	test   %eax,%eax
   140003711:	0f 8e 9f 00 00 00    	jle    1400037b6 <__pformat_int+0x2c2>
   140003717:	48 8b 45 28          	mov    0x28(%rbp),%rax
   14000371b:	8b 40 08             	mov    0x8(%rax),%eax
   14000371e:	25 c0 01 00 00       	and    $0x1c0,%eax
   140003723:	85 c0                	test   %eax,%eax
   140003725:	74 11                	je     140003738 <__pformat_int+0x244>
   140003727:	48 8b 45 28          	mov    0x28(%rbp),%rax
   14000372b:	8b 40 0c             	mov    0xc(%rax),%eax
   14000372e:	8d 50 ff             	lea    -0x1(%rax),%edx
   140003731:	48 8b 45 28          	mov    0x28(%rbp),%rax
   140003735:	89 50 0c             	mov    %edx,0xc(%rax)
   140003738:	48 8b 45 28          	mov    0x28(%rbp),%rax
   14000373c:	8b 40 10             	mov    0x10(%rax),%eax
   14000373f:	85 c0                	test   %eax,%eax
   140003741:	79 3b                	jns    14000377e <__pformat_int+0x28a>
   140003743:	48 8b 45 28          	mov    0x28(%rbp),%rax
   140003747:	8b 40 08             	mov    0x8(%rax),%eax
   14000374a:	25 00 06 00 00       	and    $0x600,%eax
   14000374f:	3d 00 02 00 00       	cmp    $0x200,%eax
   140003754:	75 28                	jne    14000377e <__pformat_int+0x28a>
   140003756:	eb 0f                	jmp    140003767 <__pformat_int+0x273>
   140003758:	48 8b 45 f8          	mov    -0x8(%rbp),%rax
   14000375c:	48 8d 50 01          	lea    0x1(%rax),%rdx
   140003760:	48 89 55 f8          	mov    %rdx,-0x8(%rbp)
   140003764:	c6 00 30             	movb   $0x30,(%rax)
   140003767:	48 8b 45 28          	mov    0x28(%rbp),%rax
   14000376b:	8b 40 0c             	mov    0xc(%rax),%eax
   14000376e:	8d 48 ff             	lea    -0x1(%rax),%ecx
   140003771:	48 8b 55 28          	mov    0x28(%rbp),%rdx
   140003775:	89 4a 0c             	mov    %ecx,0xc(%rdx)
   140003778:	85 c0                	test   %eax,%eax
   14000377a:	7f dc                	jg     140003758 <__pformat_int+0x264>
   14000377c:	eb 38                	jmp    1400037b6 <__pformat_int+0x2c2>
   14000377e:	48 8b 45 28          	mov    0x28(%rbp),%rax
   140003782:	8b 40 08             	mov    0x8(%rax),%eax
   140003785:	25 00 04 00 00       	and    $0x400,%eax
   14000378a:	85 c0                	test   %eax,%eax
   14000378c:	75 28                	jne    1400037b6 <__pformat_int+0x2c2>
   14000378e:	eb 11                	jmp    1400037a1 <__pformat_int+0x2ad>
   140003790:	48 8b 45 28          	mov    0x28(%rbp),%rax
   140003794:	48 89 c2             	mov    %rax,%rdx
   140003797:	b9 20 00 00 00       	mov    $0x20,%ecx
   14000379c:	e8 ef f8 ff ff       	call   140003090 <__pformat_putc>
   1400037a1:	48 8b 45 28          	mov    0x28(%rbp),%rax
   1400037a5:	8b 40 0c             	mov    0xc(%rax),%eax
   1400037a8:	8d 48 ff             	lea    -0x1(%rax),%ecx
   1400037ab:	48 8b 55 28          	mov    0x28(%rbp),%rdx
   1400037af:	89 4a 0c             	mov    %ecx,0xc(%rdx)
   1400037b2:	85 c0                	test   %eax,%eax
   1400037b4:	7f da                	jg     140003790 <__pformat_int+0x29c>
   1400037b6:	48 8b 45 28          	mov    0x28(%rbp),%rax
   1400037ba:	8b 40 08             	mov    0x8(%rax),%eax
   1400037bd:	25 80 00 00 00       	and    $0x80,%eax
   1400037c2:	85 c0                	test   %eax,%eax
   1400037c4:	74 11                	je     1400037d7 <__pformat_int+0x2e3>
   1400037c6:	48 8b 45 f8          	mov    -0x8(%rbp),%rax
   1400037ca:	48 8d 50 01          	lea    0x1(%rax),%rdx
   1400037ce:	48 89 55 f8          	mov    %rdx,-0x8(%rbp)
   1400037d2:	c6 00 2d             	movb   $0x2d,(%rax)
   1400037d5:	eb 5a                	jmp    140003831 <__pformat_int+0x33d>
   1400037d7:	48 8b 45 28          	mov    0x28(%rbp),%rax
   1400037db:	8b 40 08             	mov    0x8(%rax),%eax
   1400037de:	25 00 01 00 00       	and    $0x100,%eax
   1400037e3:	85 c0                	test   %eax,%eax
   1400037e5:	74 11                	je     1400037f8 <__pformat_int+0x304>
   1400037e7:	48 8b 45 f8          	mov    -0x8(%rbp),%rax
   1400037eb:	48 8d 50 01          	lea    0x1(%rax),%rdx
   1400037ef:	48 89 55 f8          	mov    %rdx,-0x8(%rbp)
   1400037f3:	c6 00 2b             	movb   $0x2b,(%rax)
   1400037f6:	eb 39                	jmp    140003831 <__pformat_int+0x33d>
   1400037f8:	48 8b 45 28          	mov    0x28(%rbp),%rax
   1400037fc:	8b 40 08             	mov    0x8(%rax),%eax
   1400037ff:	83 e0 40             	and    $0x40,%eax
   140003802:	85 c0                	test   %eax,%eax
   140003804:	74 2b                	je     140003831 <__pformat_int+0x33d>
   140003806:	48 8b 45 f8          	mov    -0x8(%rbp),%rax
   14000380a:	48 8d 50 01          	lea    0x1(%rax),%rdx
   14000380e:	48 89 55 f8          	mov    %rdx,-0x8(%rbp)
   140003812:	c6 00 20             	movb   $0x20,(%rax)
   140003815:	eb 1a                	jmp    140003831 <__pformat_int+0x33d>
   140003817:	48 83 6d f8 01       	subq   $0x1,-0x8(%rbp)
   14000381c:	48 8b 45 f8          	mov    -0x8(%rbp),%rax
   140003820:	0f b6 00             	movzbl (%rax),%eax
   140003823:	0f be c0             	movsbl %al,%eax
   140003826:	48 8b 55 28          	mov    0x28(%rbp),%rdx
   14000382a:	89 c1                	mov    %eax,%ecx
   14000382c:	e8 5f f8 ff ff       	call   140003090 <__pformat_putc>
   140003831:	48 8b 45 f8          	mov    -0x8(%rbp),%rax
   140003835:	48 3b 45 e8          	cmp    -0x18(%rbp),%rax
   140003839:	77 dc                	ja     140003817 <__pformat_int+0x323>
   14000383b:	eb 11                	jmp    14000384e <__pformat_int+0x35a>
   14000383d:	48 8b 45 28          	mov    0x28(%rbp),%rax
   140003841:	48 89 c2             	mov    %rax,%rdx
   140003844:	b9 20 00 00 00       	mov    $0x20,%ecx
   140003849:	e8 42 f8 ff ff       	call   140003090 <__pformat_putc>
   14000384e:	48 8b 45 28          	mov    0x28(%rbp),%rax
   140003852:	8b 40 0c             	mov    0xc(%rax),%eax
   140003855:	8d 48 ff             	lea    -0x1(%rax),%ecx
   140003858:	48 8b 55 28          	mov    0x28(%rbp),%rdx
   14000385c:	89 4a 0c             	mov    %ecx,0xc(%rdx)
   14000385f:	85 c0                	test   %eax,%eax
   140003861:	7f da                	jg     14000383d <__pformat_int+0x349>
   140003863:	90                   	nop
   140003864:	90                   	nop
   140003865:	48 8d 65 08          	lea    0x8(%rbp),%rsp
   140003869:	5b                   	pop    %rbx
   14000386a:	5d                   	pop    %rbp
   14000386b:	c3                   	ret    

000000014000386c <__pformat_xint>:
   14000386c:	55                   	push   %rbp
   14000386d:	53                   	push   %rbx
   14000386e:	48 83 ec 68          	sub    $0x68,%rsp
   140003872:	48 8d 6c 24 60       	lea    0x60(%rsp),%rbp
   140003877:	89 4d 20             	mov    %ecx,0x20(%rbp)
   14000387a:	48 89 d3             	mov    %rdx,%rbx
   14000387d:	48 8b 03             	mov    (%rbx),%rax
   140003880:	48 8b 53 08          	mov    0x8(%rbx),%rdx
   140003884:	48 89 45 c0          	mov    %rax,-0x40(%rbp)
   140003888:	48 89 55 c8          	mov    %rdx,-0x38(%rbp)
   14000388c:	4c 89 45 30          	mov    %r8,0x30(%rbp)
   140003890:	83 7d 20 6f          	cmpl   $0x6f,0x20(%rbp)
   140003894:	75 07                	jne    14000389d <__pformat_xint+0x31>
   140003896:	b8 03 00 00 00       	mov    $0x3,%eax
   14000389b:	eb 05                	jmp    1400038a2 <__pformat_xint+0x36>
   14000389d:	b8 04 00 00 00       	mov    $0x4,%eax
   1400038a2:	89 45 ec             	mov    %eax,-0x14(%rbp)
   1400038a5:	48 8b 55 30          	mov    0x30(%rbp),%rdx
   1400038a9:	8b 45 ec             	mov    -0x14(%rbp),%eax
   1400038ac:	49 89 d0             	mov    %rdx,%r8
   1400038af:	89 c2                	mov    %eax,%edx
   1400038b1:	b9 02 00 00 00       	mov    $0x2,%ecx
   1400038b6:	e8 a8 fb ff ff       	call   140003463 <__pformat_int_bufsiz>
   1400038bb:	89 45 e8             	mov    %eax,-0x18(%rbp)
   1400038be:	48 c7 45 e0 00 00 00 	movq   $0x0,-0x20(%rbp)
   1400038c5:	00 
   1400038c6:	8b 45 e8             	mov    -0x18(%rbp),%eax
   1400038c9:	48 98                	cltq   
   1400038cb:	48 83 c0 0f          	add    $0xf,%rax
   1400038cf:	48 c1 e8 04          	shr    $0x4,%rax
   1400038d3:	48 c1 e0 04          	shl    $0x4,%rax
   1400038d7:	e8 14 f7 ff ff       	call   140002ff0 <___chkstk_ms>
   1400038dc:	48 29 c4             	sub    %rax,%rsp
   1400038df:	48 8d 44 24 20       	lea    0x20(%rsp),%rax
   1400038e4:	48 83 c0 0f          	add    $0xf,%rax
   1400038e8:	48 c1 e8 04          	shr    $0x4,%rax
   1400038ec:	48 c1 e0 04          	shl    $0x4,%rax
   1400038f0:	48 89 45 e0          	mov    %rax,-0x20(%rbp)
   1400038f4:	48 8b 45 e0          	mov    -0x20(%rbp),%rax
   1400038f8:	48 89 45 f0          	mov    %rax,-0x10(%rbp)
   1400038fc:	83 7d 20 6f          	cmpl   $0x6f,0x20(%rbp)
   140003900:	75 07                	jne    140003909 <__pformat_xint+0x9d>
   140003902:	b8 07 00 00 00       	mov    $0x7,%eax
   140003907:	eb 05                	jmp    14000390e <__pformat_xint+0xa2>
   140003909:	b8 0f 00 00 00       	mov    $0xf,%eax
   14000390e:	89 45 dc             	mov    %eax,-0x24(%rbp)
   140003911:	eb 5e                	jmp    140003971 <__pformat_xint+0x105>
   140003913:	48 8b 45 c0          	mov    -0x40(%rbp),%rax
   140003917:	89 c2                	mov    %eax,%edx
   140003919:	8b 45 dc             	mov    -0x24(%rbp),%eax
   14000391c:	21 d0                	and    %edx,%eax
   14000391e:	8d 48 30             	lea    0x30(%rax),%ecx
   140003921:	48 8b 45 f0          	mov    -0x10(%rbp),%rax
   140003925:	48 8d 50 01          	lea    0x1(%rax),%rdx
   140003929:	48 89 55 f0          	mov    %rdx,-0x10(%rbp)
   14000392d:	48 89 45 d0          	mov    %rax,-0x30(%rbp)
   140003931:	89 ca                	mov    %ecx,%edx
   140003933:	48 8b 45 d0          	mov    -0x30(%rbp),%rax
   140003937:	88 10                	mov    %dl,(%rax)
   140003939:	48 8b 45 d0          	mov    -0x30(%rbp),%rax
   14000393d:	0f b6 00             	movzbl (%rax),%eax
   140003940:	3c 39                	cmp    $0x39,%al
   140003942:	7e 1a                	jle    14000395e <__pformat_xint+0xf2>
   140003944:	48 8b 45 d0          	mov    -0x30(%rbp),%rax
   140003948:	0f b6 00             	movzbl (%rax),%eax
   14000394b:	83 c0 07             	add    $0x7,%eax
   14000394e:	89 c2                	mov    %eax,%edx
   140003950:	8b 45 20             	mov    0x20(%rbp),%eax
   140003953:	83 e0 20             	and    $0x20,%eax
   140003956:	09 c2                	or     %eax,%edx
   140003958:	48 8b 45 d0          	mov    -0x30(%rbp),%rax
   14000395c:	88 10                	mov    %dl,(%rax)
   14000395e:	48 8b 55 c0          	mov    -0x40(%rbp),%rdx
   140003962:	8b 45 ec             	mov    -0x14(%rbp),%eax
   140003965:	89 c1                	mov    %eax,%ecx
   140003967:	48 d3 ea             	shr    %cl,%rdx
   14000396a:	48 89 d0             	mov    %rdx,%rax
   14000396d:	48 89 45 c0          	mov    %rax,-0x40(%rbp)
   140003971:	48 8b 45 c0          	mov    -0x40(%rbp),%rax
   140003975:	48 85 c0             	test   %rax,%rax
   140003978:	75 99                	jne    140003913 <__pformat_xint+0xa7>
   14000397a:	48 8b 45 f0          	mov    -0x10(%rbp),%rax
   14000397e:	48 3b 45 e0          	cmp    -0x20(%rbp),%rax
   140003982:	75 13                	jne    140003997 <__pformat_xint+0x12b>
   140003984:	48 8b 45 30          	mov    0x30(%rbp),%rax
   140003988:	8b 40 08             	mov    0x8(%rax),%eax
   14000398b:	80 e4 f7             	and    $0xf7,%ah
   14000398e:	89 c2                	mov    %eax,%edx
   140003990:	48 8b 45 30          	mov    0x30(%rbp),%rax
   140003994:	89 50 08             	mov    %edx,0x8(%rax)
   140003997:	48 8b 45 30          	mov    0x30(%rbp),%rax
   14000399b:	8b 40 10             	mov    0x10(%rax),%eax
   14000399e:	89 45 fc             	mov    %eax,-0x4(%rbp)
   1400039a1:	83 7d fc 00          	cmpl   $0x0,-0x4(%rbp)
   1400039a5:	7e 3a                	jle    1400039e1 <__pformat_xint+0x175>
   1400039a7:	8b 55 fc             	mov    -0x4(%rbp),%edx
   1400039aa:	48 8b 45 f0          	mov    -0x10(%rbp),%rax
   1400039ae:	48 2b 45 e0          	sub    -0x20(%rbp),%rax
   1400039b2:	89 c1                	mov    %eax,%ecx
   1400039b4:	89 d0                	mov    %edx,%eax
   1400039b6:	29 c8                	sub    %ecx,%eax
   1400039b8:	89 45 fc             	mov    %eax,-0x4(%rbp)
   1400039bb:	83 7d fc 00          	cmpl   $0x0,-0x4(%rbp)
   1400039bf:	7e 20                	jle    1400039e1 <__pformat_xint+0x175>
   1400039c1:	eb 0f                	jmp    1400039d2 <__pformat_xint+0x166>
   1400039c3:	48 8b 45 f0          	mov    -0x10(%rbp),%rax
   1400039c7:	48 8d 50 01          	lea    0x1(%rax),%rdx
   1400039cb:	48 89 55 f0          	mov    %rdx,-0x10(%rbp)
   1400039cf:	c6 00 30             	movb   $0x30,(%rax)
   1400039d2:	8b 45 fc             	mov    -0x4(%rbp),%eax
   1400039d5:	8d 50 ff             	lea    -0x1(%rax),%edx
   1400039d8:	89 55 fc             	mov    %edx,-0x4(%rbp)
   1400039db:	85 c0                	test   %eax,%eax
   1400039dd:	7f e4                	jg     1400039c3 <__pformat_xint+0x157>
   1400039df:	eb 25                	jmp    140003a06 <__pformat_xint+0x19a>
   1400039e1:	83 7d 20 6f          	cmpl   $0x6f,0x20(%rbp)
   1400039e5:	75 1f                	jne    140003a06 <__pformat_xint+0x19a>
   1400039e7:	48 8b 45 30          	mov    0x30(%rbp),%rax
   1400039eb:	8b 40 08             	mov    0x8(%rax),%eax
   1400039ee:	25 00 08 00 00       	and    $0x800,%eax
   1400039f3:	85 c0                	test   %eax,%eax
   1400039f5:	74 0f                	je     140003a06 <__pformat_xint+0x19a>
   1400039f7:	48 8b 45 f0          	mov    -0x10(%rbp),%rax
   1400039fb:	48 8d 50 01          	lea    0x1(%rax),%rdx
   1400039ff:	48 89 55 f0          	mov    %rdx,-0x10(%rbp)
   140003a03:	c6 00 30             	movb   $0x30,(%rax)
   140003a06:	48 8b 45 f0          	mov    -0x10(%rbp),%rax
   140003a0a:	48 3b 45 e0          	cmp    -0x20(%rbp),%rax
   140003a0e:	75 1a                	jne    140003a2a <__pformat_xint+0x1be>
   140003a10:	48 8b 45 30          	mov    0x30(%rbp),%rax
   140003a14:	8b 40 10             	mov    0x10(%rax),%eax
   140003a17:	85 c0                	test   %eax,%eax
   140003a19:	74 0f                	je     140003a2a <__pformat_xint+0x1be>
   140003a1b:	48 8b 45 f0          	mov    -0x10(%rbp),%rax
   140003a1f:	48 8d 50 01          	lea    0x1(%rax),%rdx
   140003a23:	48 89 55 f0          	mov    %rdx,-0x10(%rbp)
   140003a27:	c6 00 30             	movb   $0x30,(%rax)
   140003a2a:	48 8b 45 30          	mov    0x30(%rbp),%rax
   140003a2e:	8b 40 0c             	mov    0xc(%rax),%eax
   140003a31:	48 8b 55 f0          	mov    -0x10(%rbp),%rdx
   140003a35:	48 2b 55 e0          	sub    -0x20(%rbp),%rdx
   140003a39:	89 55 fc             	mov    %edx,-0x4(%rbp)
   140003a3c:	39 45 fc             	cmp    %eax,-0x4(%rbp)
   140003a3f:	7d 15                	jge    140003a56 <__pformat_xint+0x1ea>
   140003a41:	48 8b 45 30          	mov    0x30(%rbp),%rax
   140003a45:	8b 40 0c             	mov    0xc(%rax),%eax
   140003a48:	2b 45 fc             	sub    -0x4(%rbp),%eax
   140003a4b:	89 c2                	mov    %eax,%edx
   140003a4d:	48 8b 45 30          	mov    0x30(%rbp),%rax
   140003a51:	89 50 0c             	mov    %edx,0xc(%rax)
   140003a54:	eb 0b                	jmp    140003a61 <__pformat_xint+0x1f5>
   140003a56:	48 8b 45 30          	mov    0x30(%rbp),%rax
   140003a5a:	c7 40 0c ff ff ff ff 	movl   $0xffffffff,0xc(%rax)
   140003a61:	48 8b 45 30          	mov    0x30(%rbp),%rax
   140003a65:	8b 40 0c             	mov    0xc(%rax),%eax
   140003a68:	89 45 fc             	mov    %eax,-0x4(%rbp)
   140003a6b:	83 7d fc 00          	cmpl   $0x0,-0x4(%rbp)
   140003a6f:	7e 1a                	jle    140003a8b <__pformat_xint+0x21f>
   140003a71:	83 7d 20 6f          	cmpl   $0x6f,0x20(%rbp)
   140003a75:	74 14                	je     140003a8b <__pformat_xint+0x21f>
   140003a77:	48 8b 45 30          	mov    0x30(%rbp),%rax
   140003a7b:	8b 40 08             	mov    0x8(%rax),%eax
   140003a7e:	25 00 08 00 00       	and    $0x800,%eax
   140003a83:	85 c0                	test   %eax,%eax
   140003a85:	74 04                	je     140003a8b <__pformat_xint+0x21f>
   140003a87:	83 6d fc 02          	subl   $0x2,-0x4(%rbp)
   140003a8b:	83 7d fc 00          	cmpl   $0x0,-0x4(%rbp)
   140003a8f:	7e 3c                	jle    140003acd <__pformat_xint+0x261>
   140003a91:	48 8b 45 30          	mov    0x30(%rbp),%rax
   140003a95:	8b 40 10             	mov    0x10(%rax),%eax
   140003a98:	85 c0                	test   %eax,%eax
   140003a9a:	79 31                	jns    140003acd <__pformat_xint+0x261>
   140003a9c:	48 8b 45 30          	mov    0x30(%rbp),%rax
   140003aa0:	8b 40 08             	mov    0x8(%rax),%eax
   140003aa3:	25 00 06 00 00       	and    $0x600,%eax
   140003aa8:	3d 00 02 00 00       	cmp    $0x200,%eax
   140003aad:	75 1e                	jne    140003acd <__pformat_xint+0x261>
   140003aaf:	eb 0f                	jmp    140003ac0 <__pformat_xint+0x254>
   140003ab1:	48 8b 45 f0          	mov    -0x10(%rbp),%rax
   140003ab5:	48 8d 50 01          	lea    0x1(%rax),%rdx
   140003ab9:	48 89 55 f0          	mov    %rdx,-0x10(%rbp)
   140003abd:	c6 00 30             	movb   $0x30,(%rax)
   140003ac0:	8b 45 fc             	mov    -0x4(%rbp),%eax
   140003ac3:	8d 50 ff             	lea    -0x1(%rax),%edx
   140003ac6:	89 55 fc             	mov    %edx,-0x4(%rbp)
   140003ac9:	85 c0                	test   %eax,%eax
   140003acb:	7f e4                	jg     140003ab1 <__pformat_xint+0x245>
   140003acd:	83 7d 20 6f          	cmpl   $0x6f,0x20(%rbp)
   140003ad1:	74 30                	je     140003b03 <__pformat_xint+0x297>
   140003ad3:	48 8b 45 30          	mov    0x30(%rbp),%rax
   140003ad7:	8b 40 08             	mov    0x8(%rax),%eax
   140003ada:	25 00 08 00 00       	and    $0x800,%eax
   140003adf:	85 c0                	test   %eax,%eax
   140003ae1:	74 20                	je     140003b03 <__pformat_xint+0x297>
   140003ae3:	48 8b 45 f0          	mov    -0x10(%rbp),%rax
   140003ae7:	48 8d 50 01          	lea    0x1(%rax),%rdx
   140003aeb:	48 89 55 f0          	mov    %rdx,-0x10(%rbp)
   140003aef:	8b 55 20             	mov    0x20(%rbp),%edx
   140003af2:	88 10                	mov    %dl,(%rax)
   140003af4:	48 8b 45 f0          	mov    -0x10(%rbp),%rax
   140003af8:	48 8d 50 01          	lea    0x1(%rax),%rdx
   140003afc:	48 89 55 f0          	mov    %rdx,-0x10(%rbp)
   140003b00:	c6 00 30             	movb   $0x30,(%rax)
   140003b03:	83 7d fc 00          	cmpl   $0x0,-0x4(%rbp)
   140003b07:	7e 4c                	jle    140003b55 <__pformat_xint+0x2e9>
   140003b09:	48 8b 45 30          	mov    0x30(%rbp),%rax
   140003b0d:	8b 40 08             	mov    0x8(%rax),%eax
   140003b10:	25 00 04 00 00       	and    $0x400,%eax
   140003b15:	85 c0                	test   %eax,%eax
   140003b17:	75 3c                	jne    140003b55 <__pformat_xint+0x2e9>
   140003b19:	eb 11                	jmp    140003b2c <__pformat_xint+0x2c0>
   140003b1b:	48 8b 45 30          	mov    0x30(%rbp),%rax
   140003b1f:	48 89 c2             	mov    %rax,%rdx
   140003b22:	b9 20 00 00 00       	mov    $0x20,%ecx
   140003b27:	e8 64 f5 ff ff       	call   140003090 <__pformat_putc>
   140003b2c:	8b 45 fc             	mov    -0x4(%rbp),%eax
   140003b2f:	8d 50 ff             	lea    -0x1(%rax),%edx
   140003b32:	89 55 fc             	mov    %edx,-0x4(%rbp)
   140003b35:	85 c0                	test   %eax,%eax
   140003b37:	7f e2                	jg     140003b1b <__pformat_xint+0x2af>
   140003b39:	eb 1a                	jmp    140003b55 <__pformat_xint+0x2e9>
   140003b3b:	48 83 6d f0 01       	subq   $0x1,-0x10(%rbp)
   140003b40:	48 8b 45 f0          	mov    -0x10(%rbp),%rax
   140003b44:	0f b6 00             	movzbl (%rax),%eax
   140003b47:	0f be c0             	movsbl %al,%eax
   140003b4a:	48 8b 55 30          	mov    0x30(%rbp),%rdx
   140003b4e:	89 c1                	mov    %eax,%ecx
   140003b50:	e8 3b f5 ff ff       	call   140003090 <__pformat_putc>
   140003b55:	48 8b 45 f0          	mov    -0x10(%rbp),%rax
   140003b59:	48 3b 45 e0          	cmp    -0x20(%rbp),%rax
   140003b5d:	77 dc                	ja     140003b3b <__pformat_xint+0x2cf>
   140003b5f:	eb 11                	jmp    140003b72 <__pformat_xint+0x306>
   140003b61:	48 8b 45 30          	mov    0x30(%rbp),%rax
   140003b65:	48 89 c2             	mov    %rax,%rdx
   140003b68:	b9 20 00 00 00       	mov    $0x20,%ecx
   140003b6d:	e8 1e f5 ff ff       	call   140003090 <__pformat_putc>
   140003b72:	8b 45 fc             	mov    -0x4(%rbp),%eax
   140003b75:	8d 50 ff             	lea    -0x1(%rax),%edx
   140003b78:	89 55 fc             	mov    %edx,-0x4(%rbp)
   140003b7b:	85 c0                	test   %eax,%eax
   140003b7d:	7f e2                	jg     140003b61 <__pformat_xint+0x2f5>
   140003b7f:	90                   	nop
   140003b80:	90                   	nop
   140003b81:	48 8d 65 08          	lea    0x8(%rbp),%rsp
   140003b85:	5b                   	pop    %rbx
   140003b86:	5d                   	pop    %rbp
   140003b87:	c3                   	ret    

0000000140003b88 <__pformat_cvt>:
   140003b88:	55                   	push   %rbp
   140003b89:	53                   	push   %rbx
   140003b8a:	48 83 ec 68          	sub    $0x68,%rsp
   140003b8e:	48 8d 6c 24 60       	lea    0x60(%rsp),%rbp
   140003b93:	89 4d 20             	mov    %ecx,0x20(%rbp)
   140003b96:	48 89 d3             	mov    %rdx,%rbx
   140003b99:	44 89 45 30          	mov    %r8d,0x30(%rbp)
   140003b9d:	4c 89 4d 38          	mov    %r9,0x38(%rbp)
   140003ba1:	c7 45 fc 00 00 00 00 	movl   $0x0,-0x4(%rbp)
   140003ba8:	db 2b                	fldt   (%rbx)
   140003baa:	db 7d e0             	fstpt  -0x20(%rbp)
   140003bad:	48 8d 45 e0          	lea    -0x20(%rbp),%rax
   140003bb1:	48 89 c1             	mov    %rax,%rcx
   140003bb4:	e8 d7 49 00 00       	call   140008590 <__fpclassifyl>
   140003bb9:	89 45 f8             	mov    %eax,-0x8(%rbp)
   140003bbc:	8b 45 f8             	mov    -0x8(%rbp),%eax
   140003bbf:	25 00 01 00 00       	and    $0x100,%eax
   140003bc4:	85 c0                	test   %eax,%eax
   140003bc6:	74 1d                	je     140003be5 <__pformat_cvt+0x5d>
   140003bc8:	8b 45 f8             	mov    -0x8(%rbp),%eax
   140003bcb:	25 00 04 00 00       	and    $0x400,%eax
   140003bd0:	85 c0                	test   %eax,%eax
   140003bd2:	74 07                	je     140003bdb <__pformat_cvt+0x53>
   140003bd4:	b8 03 00 00 00       	mov    $0x3,%eax
   140003bd9:	eb 05                	jmp    140003be0 <__pformat_cvt+0x58>
   140003bdb:	b8 04 00 00 00       	mov    $0x4,%eax
   140003be0:	89 45 f8             	mov    %eax,-0x8(%rbp)
   140003be3:	eb 4a                	jmp    140003c2f <__pformat_cvt+0xa7>
   140003be5:	8b 45 f8             	mov    -0x8(%rbp),%eax
   140003be8:	25 00 04 00 00       	and    $0x400,%eax
   140003bed:	85 c0                	test   %eax,%eax
   140003bef:	74 37                	je     140003c28 <__pformat_cvt+0xa0>
   140003bf1:	8b 45 f8             	mov    -0x8(%rbp),%eax
   140003bf4:	25 00 40 00 00       	and    $0x4000,%eax
   140003bf9:	85 c0                	test   %eax,%eax
   140003bfb:	74 10                	je     140003c0d <__pformat_cvt+0x85>
   140003bfd:	c7 45 f8 02 00 00 00 	movl   $0x2,-0x8(%rbp)
   140003c04:	c7 45 fc c3 bf ff ff 	movl   $0xffffbfc3,-0x4(%rbp)
   140003c0b:	eb 22                	jmp    140003c2f <__pformat_cvt+0xa7>
   140003c0d:	c7 45 f8 01 00 00 00 	movl   $0x1,-0x8(%rbp)
   140003c14:	0f b7 43 08          	movzwl 0x8(%rbx),%eax
   140003c18:	98                   	cwtl   
   140003c19:	25 ff 7f 00 00       	and    $0x7fff,%eax
   140003c1e:	2d 3e 40 00 00       	sub    $0x403e,%eax
   140003c23:	89 45 fc             	mov    %eax,-0x4(%rbp)
   140003c26:	eb 07                	jmp    140003c2f <__pformat_cvt+0xa7>
   140003c28:	c7 45 f8 00 00 00 00 	movl   $0x0,-0x8(%rbp)
   140003c2f:	8b 45 f8             	mov    -0x8(%rbp),%eax
   140003c32:	83 f8 04             	cmp    $0x4,%eax
   140003c35:	74 0e                	je     140003c45 <__pformat_cvt+0xbd>
   140003c37:	0f b7 43 08          	movzwl 0x8(%rbx),%eax
   140003c3b:	98                   	cwtl   
   140003c3c:	25 00 80 00 00       	and    $0x8000,%eax
   140003c41:	89 c2                	mov    %eax,%edx
   140003c43:	eb 05                	jmp    140003c4a <__pformat_cvt+0xc2>
   140003c45:	ba 00 00 00 00       	mov    $0x0,%edx
   140003c4a:	48 8b 45 40          	mov    0x40(%rbp),%rax
   140003c4e:	89 10                	mov    %edx,(%rax)
   140003c50:	8b 45 fc             	mov    -0x4(%rbp),%eax
   140003c53:	48 8d 4d f8          	lea    -0x8(%rbp),%rcx
   140003c57:	48 8d 55 f0          	lea    -0x10(%rbp),%rdx
   140003c5b:	48 89 54 24 38       	mov    %rdx,0x38(%rsp)
   140003c60:	48 8b 55 38          	mov    0x38(%rbp),%rdx
   140003c64:	48 89 54 24 30       	mov    %rdx,0x30(%rsp)
   140003c69:	8b 55 30             	mov    0x30(%rbp),%edx
   140003c6c:	89 54 24 28          	mov    %edx,0x28(%rsp)
   140003c70:	8b 55 20             	mov    0x20(%rbp),%edx
   140003c73:	89 54 24 20          	mov    %edx,0x20(%rsp)
   140003c77:	49 89 c9             	mov    %rcx,%r9
   140003c7a:	49 89 d8             	mov    %rbx,%r8
   140003c7d:	89 c2                	mov    %eax,%edx
   140003c7f:	48 8d 05 0a 64 00 00 	lea    0x640a(%rip),%rax        # 14000a090 <fpi.0>
   140003c86:	48 89 c1             	mov    %rax,%rcx
   140003c89:	e8 8c 20 00 00       	call   140005d1a <__gdtoa>
   140003c8e:	48 83 c4 68          	add    $0x68,%rsp
   140003c92:	5b                   	pop    %rbx
   140003c93:	5d                   	pop    %rbp
   140003c94:	c3                   	ret    

0000000140003c95 <__pformat_ecvt>:
   140003c95:	55                   	push   %rbp
   140003c96:	53                   	push   %rbx
   140003c97:	48 83 ec 68          	sub    $0x68,%rsp
   140003c9b:	48 8d 6c 24 60       	lea    0x60(%rsp),%rbp
   140003ca0:	48 89 cb             	mov    %rcx,%rbx
   140003ca3:	db 2b                	fldt   (%rbx)
   140003ca5:	db 7d e0             	fstpt  -0x20(%rbp)
   140003ca8:	89 55 28             	mov    %edx,0x28(%rbp)
   140003cab:	4c 89 45 30          	mov    %r8,0x30(%rbp)
   140003caf:	4c 89 4d 38          	mov    %r9,0x38(%rbp)
   140003cb3:	db 6d e0             	fldt   -0x20(%rbp)
   140003cb6:	db 7d f0             	fstpt  -0x10(%rbp)
   140003cb9:	48 8b 45 f0          	mov    -0x10(%rbp),%rax
   140003cbd:	48 8b 55 f8          	mov    -0x8(%rbp),%rdx
   140003cc1:	48 89 45 d0          	mov    %rax,-0x30(%rbp)
   140003cc5:	48 89 55 d8          	mov    %rdx,-0x28(%rbp)
   140003cc9:	4c 8b 45 30          	mov    0x30(%rbp),%r8
   140003ccd:	8b 4d 28             	mov    0x28(%rbp),%ecx
   140003cd0:	48 8d 45 d0          	lea    -0x30(%rbp),%rax
   140003cd4:	48 8b 55 38          	mov    0x38(%rbp),%rdx
   140003cd8:	48 89 54 24 20       	mov    %rdx,0x20(%rsp)
   140003cdd:	4d 89 c1             	mov    %r8,%r9
   140003ce0:	41 89 c8             	mov    %ecx,%r8d
   140003ce3:	48 89 c2             	mov    %rax,%rdx
   140003ce6:	b9 02 00 00 00       	mov    $0x2,%ecx
   140003ceb:	e8 98 fe ff ff       	call   140003b88 <__pformat_cvt>
   140003cf0:	48 83 c4 68          	add    $0x68,%rsp
   140003cf4:	5b                   	pop    %rbx
   140003cf5:	5d                   	pop    %rbp
   140003cf6:	c3                   	ret    

0000000140003cf7 <__pformat_fcvt>:
   140003cf7:	55                   	push   %rbp
   140003cf8:	53                   	push   %rbx
   140003cf9:	48 83 ec 68          	sub    $0x68,%rsp
   140003cfd:	48 8d 6c 24 60       	lea    0x60(%rsp),%rbp
   140003d02:	48 89 cb             	mov    %rcx,%rbx
   140003d05:	db 2b                	fldt   (%rbx)
   140003d07:	db 7d e0             	fstpt  -0x20(%rbp)
   140003d0a:	89 55 28             	mov    %edx,0x28(%rbp)
   140003d0d:	4c 89 45 30          	mov    %r8,0x30(%rbp)
   140003d11:	4c 89 4d 38          	mov    %r9,0x38(%rbp)
   140003d15:	db 6d e0             	fldt   -0x20(%rbp)
   140003d18:	db 7d f0             	fstpt  -0x10(%rbp)
   140003d1b:	48 8b 45 f0          	mov    -0x10(%rbp),%rax
   140003d1f:	48 8b 55 f8          	mov    -0x8(%rbp),%rdx
   140003d23:	48 89 45 d0          	mov    %rax,-0x30(%rbp)
   140003d27:	48 89 55 d8          	mov    %rdx,-0x28(%rbp)
   140003d2b:	4c 8b 45 30          	mov    0x30(%rbp),%r8
   140003d2f:	8b 4d 28             	mov    0x28(%rbp),%ecx
   140003d32:	48 8d 45 d0          	lea    -0x30(%rbp),%rax
   140003d36:	48 8b 55 38          	mov    0x38(%rbp),%rdx
   140003d3a:	48 89 54 24 20       	mov    %rdx,0x20(%rsp)
   140003d3f:	4d 89 c1             	mov    %r8,%r9
   140003d42:	41 89 c8             	mov    %ecx,%r8d
   140003d45:	48 89 c2             	mov    %rax,%rdx
   140003d48:	b9 03 00 00 00       	mov    $0x3,%ecx
   140003d4d:	e8 36 fe ff ff       	call   140003b88 <__pformat_cvt>
   140003d52:	48 83 c4 68          	add    $0x68,%rsp
   140003d56:	5b                   	pop    %rbx
   140003d57:	5d                   	pop    %rbp
   140003d58:	c3                   	ret    

0000000140003d59 <__pformat_emit_radix_point>:
   140003d59:	55                   	push   %rbp
   140003d5a:	41 55                	push   %r13
   140003d5c:	41 54                	push   %r12
   140003d5e:	57                   	push   %rdi
   140003d5f:	56                   	push   %rsi
   140003d60:	53                   	push   %rbx
   140003d61:	48 83 ec 68          	sub    $0x68,%rsp
   140003d65:	48 8d 6c 24 60       	lea    0x60(%rsp),%rbp
   140003d6a:	48 89 4d 40          	mov    %rcx,0x40(%rbp)
   140003d6e:	48 8b 45 40          	mov    0x40(%rbp),%rax
   140003d72:	8b 40 14             	mov    0x14(%rax),%eax
   140003d75:	83 f8 fd             	cmp    $0xfffffffd,%eax
   140003d78:	75 57                	jne    140003dd1 <__pformat_emit_radix_point+0x78>
   140003d7a:	48 8d 45 cc          	lea    -0x34(%rbp),%rax
   140003d7e:	41 b8 08 00 00 00    	mov    $0x8,%r8d
   140003d84:	ba 00 00 00 00       	mov    $0x0,%edx
   140003d89:	48 89 c1             	mov    %rax,%rcx
   140003d8c:	e8 cf 49 00 00       	call   140008760 <memset>
   140003d91:	e8 e2 49 00 00       	call   140008778 <localeconv>
   140003d96:	48 8b 10             	mov    (%rax),%rdx
   140003d99:	48 8d 4d cc          	lea    -0x34(%rbp),%rcx
   140003d9d:	48 8d 45 d6          	lea    -0x2a(%rbp),%rax
   140003da1:	49 89 c9             	mov    %rcx,%r9
   140003da4:	41 b8 10 00 00 00    	mov    $0x10,%r8d
   140003daa:	48 89 c1             	mov    %rax,%rcx
   140003dad:	e8 3c 4c 00 00       	call   1400089ee <mbrtowc>
   140003db2:	89 45 ec             	mov    %eax,-0x14(%rbp)
   140003db5:	83 7d ec 00          	cmpl   $0x0,-0x14(%rbp)
   140003db9:	7e 0c                	jle    140003dc7 <__pformat_emit_radix_point+0x6e>
   140003dbb:	0f b7 55 d6          	movzwl -0x2a(%rbp),%edx
   140003dbf:	48 8b 45 40          	mov    0x40(%rbp),%rax
   140003dc3:	66 89 50 18          	mov    %dx,0x18(%rax)
   140003dc7:	48 8b 45 40          	mov    0x40(%rbp),%rax
   140003dcb:	8b 55 ec             	mov    -0x14(%rbp),%edx
   140003dce:	89 50 14             	mov    %edx,0x14(%rax)
   140003dd1:	48 8b 45 40          	mov    0x40(%rbp),%rax
   140003dd5:	0f b7 40 18          	movzwl 0x18(%rax),%eax
   140003dd9:	66 85 c0             	test   %ax,%ax
   140003ddc:	0f 84 df 00 00 00    	je     140003ec1 <__pformat_emit_radix_point+0x168>
   140003de2:	48 89 e0             	mov    %rsp,%rax
   140003de5:	48 89 c3             	mov    %rax,%rbx
   140003de8:	48 8b 45 40          	mov    0x40(%rbp),%rax
   140003dec:	8b 40 14             	mov    0x14(%rax),%eax
   140003def:	89 45 fc             	mov    %eax,-0x4(%rbp)
   140003df2:	8b 45 fc             	mov    -0x4(%rbp),%eax
   140003df5:	48 63 d0             	movslq %eax,%rdx
   140003df8:	48 83 ea 01          	sub    $0x1,%rdx
   140003dfc:	48 89 55 e0          	mov    %rdx,-0x20(%rbp)
   140003e00:	48 63 d0             	movslq %eax,%rdx
   140003e03:	49 89 d4             	mov    %rdx,%r12
   140003e06:	41 bd 00 00 00 00    	mov    $0x0,%r13d
   140003e0c:	48 63 d0             	movslq %eax,%rdx
   140003e0f:	48 89 d6             	mov    %rdx,%rsi
   140003e12:	bf 00 00 00 00       	mov    $0x0,%edi
   140003e17:	48 98                	cltq   
   140003e19:	48 83 c0 0f          	add    $0xf,%rax
   140003e1d:	48 c1 e8 04          	shr    $0x4,%rax
   140003e21:	48 c1 e0 04          	shl    $0x4,%rax
   140003e25:	e8 c6 f1 ff ff       	call   140002ff0 <___chkstk_ms>
   140003e2a:	48 29 c4             	sub    %rax,%rsp
   140003e2d:	48 8d 44 24 20       	lea    0x20(%rsp),%rax
   140003e32:	48 83 c0 00          	add    $0x0,%rax
   140003e36:	48 89 45 d8          	mov    %rax,-0x28(%rbp)
   140003e3a:	48 8d 45 c4          	lea    -0x3c(%rbp),%rax
   140003e3e:	41 b8 08 00 00 00    	mov    $0x8,%r8d
   140003e44:	ba 00 00 00 00       	mov    $0x0,%edx
   140003e49:	48 89 c1             	mov    %rax,%rcx
   140003e4c:	e8 0f 49 00 00       	call   140008760 <memset>
   140003e51:	48 8b 45 40          	mov    0x40(%rbp),%rax
   140003e55:	0f b7 40 18          	movzwl 0x18(%rax),%eax
   140003e59:	0f b7 d0             	movzwl %ax,%edx
   140003e5c:	48 8d 4d c4          	lea    -0x3c(%rbp),%rcx
   140003e60:	48 8b 45 d8          	mov    -0x28(%rbp),%rax
   140003e64:	49 89 c8             	mov    %rcx,%r8
   140003e67:	48 89 c1             	mov    %rax,%rcx
   140003e6a:	e8 81 4e 00 00       	call   140008cf0 <wcrtomb>
   140003e6f:	89 45 fc             	mov    %eax,-0x4(%rbp)
   140003e72:	83 7d fc 00          	cmpl   $0x0,-0x4(%rbp)
   140003e76:	7e 36                	jle    140003eae <__pformat_emit_radix_point+0x155>
   140003e78:	48 8b 45 d8          	mov    -0x28(%rbp),%rax
   140003e7c:	48 89 45 f0          	mov    %rax,-0x10(%rbp)
   140003e80:	eb 1d                	jmp    140003e9f <__pformat_emit_radix_point+0x146>
   140003e82:	48 8b 45 f0          	mov    -0x10(%rbp),%rax
   140003e86:	48 8d 50 01          	lea    0x1(%rax),%rdx
   140003e8a:	48 89 55 f0          	mov    %rdx,-0x10(%rbp)
   140003e8e:	0f b6 00             	movzbl (%rax),%eax
   140003e91:	0f be c0             	movsbl %al,%eax
   140003e94:	48 8b 55 40          	mov    0x40(%rbp),%rdx
   140003e98:	89 c1                	mov    %eax,%ecx
   140003e9a:	e8 f1 f1 ff ff       	call   140003090 <__pformat_putc>
   140003e9f:	8b 45 fc             	mov    -0x4(%rbp),%eax
   140003ea2:	8d 50 ff             	lea    -0x1(%rax),%edx
   140003ea5:	89 55 fc             	mov    %edx,-0x4(%rbp)
   140003ea8:	85 c0                	test   %eax,%eax
   140003eaa:	7f d6                	jg     140003e82 <__pformat_emit_radix_point+0x129>
   140003eac:	eb 0e                	jmp    140003ebc <__pformat_emit_radix_point+0x163>
   140003eae:	48 8b 55 40          	mov    0x40(%rbp),%rdx
   140003eb2:	b9 2e 00 00 00       	mov    $0x2e,%ecx
   140003eb7:	e8 d4 f1 ff ff       	call   140003090 <__pformat_putc>
   140003ebc:	48 89 dc             	mov    %rbx,%rsp
   140003ebf:	eb 0e                	jmp    140003ecf <__pformat_emit_radix_point+0x176>
   140003ec1:	48 8b 55 40          	mov    0x40(%rbp),%rdx
   140003ec5:	b9 2e 00 00 00       	mov    $0x2e,%ecx
   140003eca:	e8 c1 f1 ff ff       	call   140003090 <__pformat_putc>
   140003ecf:	90                   	nop
   140003ed0:	48 8d 65 08          	lea    0x8(%rbp),%rsp
   140003ed4:	5b                   	pop    %rbx
   140003ed5:	5e                   	pop    %rsi
   140003ed6:	5f                   	pop    %rdi
   140003ed7:	41 5c                	pop    %r12
   140003ed9:	41 5d                	pop    %r13
   140003edb:	5d                   	pop    %rbp
   140003edc:	c3                   	ret    

0000000140003edd <__pformat_emit_numeric_value>:
   140003edd:	55                   	push   %rbp
   140003ede:	48 89 e5             	mov    %rsp,%rbp
   140003ee1:	48 83 ec 30          	sub    $0x30,%rsp
   140003ee5:	89 4d 10             	mov    %ecx,0x10(%rbp)
   140003ee8:	48 89 55 18          	mov    %rdx,0x18(%rbp)
   140003eec:	83 7d 10 2e          	cmpl   $0x2e,0x10(%rbp)
   140003ef0:	75 0e                	jne    140003f00 <__pformat_emit_numeric_value+0x23>
   140003ef2:	48 8b 45 18          	mov    0x18(%rbp),%rax
   140003ef6:	48 89 c1             	mov    %rax,%rcx
   140003ef9:	e8 5b fe ff ff       	call   140003d59 <__pformat_emit_radix_point>
   140003efe:	eb 44                	jmp    140003f44 <__pformat_emit_numeric_value+0x67>
   140003f00:	83 7d 10 2c          	cmpl   $0x2c,0x10(%rbp)
   140003f04:	75 2f                	jne    140003f35 <__pformat_emit_numeric_value+0x58>
   140003f06:	48 8b 45 18          	mov    0x18(%rbp),%rax
   140003f0a:	0f b7 40 20          	movzwl 0x20(%rax),%eax
   140003f0e:	66 89 45 fe          	mov    %ax,-0x2(%rbp)
   140003f12:	0f b7 45 fe          	movzwl -0x2(%rbp),%eax
   140003f16:	66 85 c0             	test   %ax,%ax
   140003f19:	74 29                	je     140003f44 <__pformat_emit_numeric_value+0x67>
   140003f1b:	48 8b 55 18          	mov    0x18(%rbp),%rdx
   140003f1f:	48 8d 45 fe          	lea    -0x2(%rbp),%rax
   140003f23:	49 89 d0             	mov    %rdx,%r8
   140003f26:	ba 01 00 00 00       	mov    $0x1,%edx
   140003f2b:	48 89 c1             	mov    %rax,%rcx
   140003f2e:	e8 59 f3 ff ff       	call   14000328c <__pformat_wputchars>
   140003f33:	eb 0f                	jmp    140003f44 <__pformat_emit_numeric_value+0x67>
   140003f35:	48 8b 45 18          	mov    0x18(%rbp),%rax
   140003f39:	48 89 c2             	mov    %rax,%rdx
   140003f3c:	8b 4d 10             	mov    0x10(%rbp),%ecx
   140003f3f:	e8 4c f1 ff ff       	call   140003090 <__pformat_putc>
   140003f44:	90                   	nop
   140003f45:	48 83 c4 30          	add    $0x30,%rsp
   140003f49:	5d                   	pop    %rbp
   140003f4a:	c3                   	ret    

0000000140003f4b <__pformat_emit_inf_or_nan>:
   140003f4b:	55                   	push   %rbp
   140003f4c:	48 89 e5             	mov    %rsp,%rbp
   140003f4f:	48 83 ec 40          	sub    $0x40,%rsp
   140003f53:	89 4d 10             	mov    %ecx,0x10(%rbp)
   140003f56:	48 89 55 18          	mov    %rdx,0x18(%rbp)
   140003f5a:	4c 89 45 20          	mov    %r8,0x20(%rbp)
   140003f5e:	48 8d 45 ec          	lea    -0x14(%rbp),%rax
   140003f62:	48 89 45 f0          	mov    %rax,-0x10(%rbp)
   140003f66:	48 8b 45 20          	mov    0x20(%rbp),%rax
   140003f6a:	c7 40 10 ff ff ff ff 	movl   $0xffffffff,0x10(%rax)
   140003f71:	83 7d 10 00          	cmpl   $0x0,0x10(%rbp)
   140003f75:	74 11                	je     140003f88 <__pformat_emit_inf_or_nan+0x3d>
   140003f77:	48 8b 45 f0          	mov    -0x10(%rbp),%rax
   140003f7b:	48 8d 50 01          	lea    0x1(%rax),%rdx
   140003f7f:	48 89 55 f0          	mov    %rdx,-0x10(%rbp)
   140003f83:	c6 00 2d             	movb   $0x2d,(%rax)
   140003f86:	eb 3e                	jmp    140003fc6 <__pformat_emit_inf_or_nan+0x7b>
   140003f88:	48 8b 45 20          	mov    0x20(%rbp),%rax
   140003f8c:	8b 40 08             	mov    0x8(%rax),%eax
   140003f8f:	25 00 01 00 00       	and    $0x100,%eax
   140003f94:	85 c0                	test   %eax,%eax
   140003f96:	74 11                	je     140003fa9 <__pformat_emit_inf_or_nan+0x5e>
   140003f98:	48 8b 45 f0          	mov    -0x10(%rbp),%rax
   140003f9c:	48 8d 50 01          	lea    0x1(%rax),%rdx
   140003fa0:	48 89 55 f0          	mov    %rdx,-0x10(%rbp)
   140003fa4:	c6 00 2b             	movb   $0x2b,(%rax)
   140003fa7:	eb 1d                	jmp    140003fc6 <__pformat_emit_inf_or_nan+0x7b>
   140003fa9:	48 8b 45 20          	mov    0x20(%rbp),%rax
   140003fad:	8b 40 08             	mov    0x8(%rax),%eax
   140003fb0:	83 e0 40             	and    $0x40,%eax
   140003fb3:	85 c0                	test   %eax,%eax
   140003fb5:	74 0f                	je     140003fc6 <__pformat_emit_inf_or_nan+0x7b>
   140003fb7:	48 8b 45 f0          	mov    -0x10(%rbp),%rax
   140003fbb:	48 8d 50 01          	lea    0x1(%rax),%rdx
   140003fbf:	48 89 55 f0          	mov    %rdx,-0x10(%rbp)
   140003fc3:	c6 00 20             	movb   $0x20,(%rax)
   140003fc6:	c7 45 fc 03 00 00 00 	movl   $0x3,-0x4(%rbp)
   140003fcd:	eb 38                	jmp    140004007 <__pformat_emit_inf_or_nan+0xbc>
   140003fcf:	48 8b 45 18          	mov    0x18(%rbp),%rax
   140003fd3:	48 8d 50 01          	lea    0x1(%rax),%rdx
   140003fd7:	48 89 55 18          	mov    %rdx,0x18(%rbp)
   140003fdb:	0f b6 00             	movzbl (%rax),%eax
   140003fde:	83 e0 df             	and    $0xffffffdf,%eax
   140003fe1:	41 89 c0             	mov    %eax,%r8d
   140003fe4:	48 8b 45 20          	mov    0x20(%rbp),%rax
   140003fe8:	8b 40 08             	mov    0x8(%rax),%eax
   140003feb:	83 e0 20             	and    $0x20,%eax
   140003fee:	89 c1                	mov    %eax,%ecx
   140003ff0:	48 8b 45 f0          	mov    -0x10(%rbp),%rax
   140003ff4:	48 8d 50 01          	lea    0x1(%rax),%rdx
   140003ff8:	48 89 55 f0          	mov    %rdx,-0x10(%rbp)
   140003ffc:	44 89 c2             	mov    %r8d,%edx
   140003fff:	09 ca                	or     %ecx,%edx
   140004001:	88 10                	mov    %dl,(%rax)
   140004003:	83 6d fc 01          	subl   $0x1,-0x4(%rbp)
   140004007:	83 7d fc 00          	cmpl   $0x0,-0x4(%rbp)
   14000400b:	7f c2                	jg     140003fcf <__pformat_emit_inf_or_nan+0x84>
   14000400d:	48 8d 55 ec          	lea    -0x14(%rbp),%rdx
   140004011:	48 8b 45 f0          	mov    -0x10(%rbp),%rax
   140004015:	48 29 d0             	sub    %rdx,%rax
   140004018:	89 c1                	mov    %eax,%ecx
   14000401a:	48 8b 55 20          	mov    0x20(%rbp),%rdx
   14000401e:	48 8d 45 ec          	lea    -0x14(%rbp),%rax
   140004022:	49 89 d0             	mov    %rdx,%r8
   140004025:	89 ca                	mov    %ecx,%edx
   140004027:	48 89 c1             	mov    %rax,%rcx
   14000402a:	e8 e6 f0 ff ff       	call   140003115 <__pformat_putchars>
   14000402f:	90                   	nop
   140004030:	48 83 c4 40          	add    $0x40,%rsp
   140004034:	5d                   	pop    %rbp
   140004035:	c3                   	ret    

0000000140004036 <__pformat_emit_float>:
   140004036:	55                   	push   %rbp
   140004037:	48 89 e5             	mov    %rsp,%rbp
   14000403a:	48 83 ec 30          	sub    $0x30,%rsp
   14000403e:	89 4d 10             	mov    %ecx,0x10(%rbp)
   140004041:	48 89 55 18          	mov    %rdx,0x18(%rbp)
   140004045:	44 89 45 20          	mov    %r8d,0x20(%rbp)
   140004049:	4c 89 4d 28          	mov    %r9,0x28(%rbp)
   14000404d:	83 7d 20 00          	cmpl   $0x0,0x20(%rbp)
   140004051:	7e 2e                	jle    140004081 <__pformat_emit_float+0x4b>
   140004053:	48 8b 45 28          	mov    0x28(%rbp),%rax
   140004057:	8b 40 0c             	mov    0xc(%rax),%eax
   14000405a:	39 45 20             	cmp    %eax,0x20(%rbp)
   14000405d:	7f 15                	jg     140004074 <__pformat_emit_float+0x3e>
   14000405f:	48 8b 45 28          	mov    0x28(%rbp),%rax
   140004063:	8b 40 0c             	mov    0xc(%rax),%eax
   140004066:	2b 45 20             	sub    0x20(%rbp),%eax
   140004069:	89 c2                	mov    %eax,%edx
   14000406b:	48 8b 45 28          	mov    0x28(%rbp),%rax
   14000406f:	89 50 0c             	mov    %edx,0xc(%rax)
   140004072:	eb 29                	jmp    14000409d <__pformat_emit_float+0x67>
   140004074:	48 8b 45 28          	mov    0x28(%rbp),%rax
   140004078:	c7 40 0c ff ff ff ff 	movl   $0xffffffff,0xc(%rax)
   14000407f:	eb 1c                	jmp    14000409d <__pformat_emit_float+0x67>
   140004081:	48 8b 45 28          	mov    0x28(%rbp),%rax
   140004085:	8b 40 0c             	mov    0xc(%rax),%eax
   140004088:	85 c0                	test   %eax,%eax
   14000408a:	7e 11                	jle    14000409d <__pformat_emit_float+0x67>
   14000408c:	48 8b 45 28          	mov    0x28(%rbp),%rax
   140004090:	8b 40 0c             	mov    0xc(%rax),%eax
   140004093:	8d 50 ff             	lea    -0x1(%rax),%edx
   140004096:	48 8b 45 28          	mov    0x28(%rbp),%rax
   14000409a:	89 50 0c             	mov    %edx,0xc(%rax)
   14000409d:	48 8b 45 28          	mov    0x28(%rbp),%rax
   1400040a1:	8b 40 0c             	mov    0xc(%rax),%eax
   1400040a4:	85 c0                	test   %eax,%eax
   1400040a6:	78 2b                	js     1400040d3 <__pformat_emit_float+0x9d>
   1400040a8:	48 8b 45 28          	mov    0x28(%rbp),%rax
   1400040ac:	8b 50 0c             	mov    0xc(%rax),%edx
   1400040af:	48 8b 45 28          	mov    0x28(%rbp),%rax
   1400040b3:	8b 40 10             	mov    0x10(%rax),%eax
   1400040b6:	39 c2                	cmp    %eax,%edx
   1400040b8:	7e 19                	jle    1400040d3 <__pformat_emit_float+0x9d>
   1400040ba:	48 8b 45 28          	mov    0x28(%rbp),%rax
   1400040be:	8b 50 0c             	mov    0xc(%rax),%edx
   1400040c1:	48 8b 45 28          	mov    0x28(%rbp),%rax
   1400040c5:	8b 40 10             	mov    0x10(%rax),%eax
   1400040c8:	29 c2                	sub    %eax,%edx
   1400040ca:	48 8b 45 28          	mov    0x28(%rbp),%rax
   1400040ce:	89 50 0c             	mov    %edx,0xc(%rax)
   1400040d1:	eb 0b                	jmp    1400040de <__pformat_emit_float+0xa8>
   1400040d3:	48 8b 45 28          	mov    0x28(%rbp),%rax
   1400040d7:	c7 40 0c ff ff ff ff 	movl   $0xffffffff,0xc(%rax)
   1400040de:	48 8b 45 28          	mov    0x28(%rbp),%rax
   1400040e2:	8b 40 0c             	mov    0xc(%rax),%eax
   1400040e5:	85 c0                	test   %eax,%eax
   1400040e7:	7e 2c                	jle    140004115 <__pformat_emit_float+0xdf>
   1400040e9:	48 8b 45 28          	mov    0x28(%rbp),%rax
   1400040ed:	8b 40 10             	mov    0x10(%rax),%eax
   1400040f0:	85 c0                	test   %eax,%eax
   1400040f2:	7f 10                	jg     140004104 <__pformat_emit_float+0xce>
   1400040f4:	48 8b 45 28          	mov    0x28(%rbp),%rax
   1400040f8:	8b 40 08             	mov    0x8(%rax),%eax
   1400040fb:	25 00 08 00 00       	and    $0x800,%eax
   140004100:	85 c0                	test   %eax,%eax
   140004102:	74 11                	je     140004115 <__pformat_emit_float+0xdf>
   140004104:	48 8b 45 28          	mov    0x28(%rbp),%rax
   140004108:	8b 40 0c             	mov    0xc(%rax),%eax
   14000410b:	8d 50 ff             	lea    -0x1(%rax),%edx
   14000410e:	48 8b 45 28          	mov    0x28(%rbp),%rax
   140004112:	89 50 0c             	mov    %edx,0xc(%rax)
   140004115:	83 7d 20 00          	cmpl   $0x0,0x20(%rbp)
   140004119:	7e 68                	jle    140004183 <__pformat_emit_float+0x14d>
   14000411b:	48 8b 45 28          	mov    0x28(%rbp),%rax
   14000411f:	8b 40 08             	mov    0x8(%rax),%eax
   140004122:	25 00 10 00 00       	and    $0x1000,%eax
   140004127:	85 c0                	test   %eax,%eax
   140004129:	74 58                	je     140004183 <__pformat_emit_float+0x14d>
   14000412b:	48 8b 45 28          	mov    0x28(%rbp),%rax
   14000412f:	0f b7 40 20          	movzwl 0x20(%rax),%eax
   140004133:	66 85 c0             	test   %ax,%ax
   140004136:	74 4b                	je     140004183 <__pformat_emit_float+0x14d>
   140004138:	8b 45 20             	mov    0x20(%rbp),%eax
   14000413b:	83 c0 02             	add    $0x2,%eax
   14000413e:	48 63 d0             	movslq %eax,%rdx
   140004141:	48 69 d2 56 55 55 55 	imul   $0x55555556,%rdx,%rdx
   140004148:	48 c1 ea 20          	shr    $0x20,%rdx
   14000414c:	c1 f8 1f             	sar    $0x1f,%eax
   14000414f:	89 c1                	mov    %eax,%ecx
   140004151:	89 d0                	mov    %edx,%eax
   140004153:	29 c8                	sub    %ecx,%eax
   140004155:	83 e8 01             	sub    $0x1,%eax
   140004158:	89 45 fc             	mov    %eax,-0x4(%rbp)
   14000415b:	eb 15                	jmp    140004172 <__pformat_emit_float+0x13c>
   14000415d:	83 6d fc 01          	subl   $0x1,-0x4(%rbp)
   140004161:	48 8b 45 28          	mov    0x28(%rbp),%rax
   140004165:	8b 40 0c             	mov    0xc(%rax),%eax
   140004168:	8d 50 ff             	lea    -0x1(%rax),%edx
   14000416b:	48 8b 45 28          	mov    0x28(%rbp),%rax
   14000416f:	89 50 0c             	mov    %edx,0xc(%rax)
   140004172:	83 7d fc 00          	cmpl   $0x0,-0x4(%rbp)
   140004176:	7e 0b                	jle    140004183 <__pformat_emit_float+0x14d>
   140004178:	48 8b 45 28          	mov    0x28(%rbp),%rax
   14000417c:	8b 40 0c             	mov    0xc(%rax),%eax
   14000417f:	85 c0                	test   %eax,%eax
   140004181:	7f da                	jg     14000415d <__pformat_emit_float+0x127>
   140004183:	48 8b 45 28          	mov    0x28(%rbp),%rax
   140004187:	8b 40 0c             	mov    0xc(%rax),%eax
   14000418a:	85 c0                	test   %eax,%eax
   14000418c:	7e 27                	jle    1400041b5 <__pformat_emit_float+0x17f>
   14000418e:	83 7d 10 00          	cmpl   $0x0,0x10(%rbp)
   140004192:	75 10                	jne    1400041a4 <__pformat_emit_float+0x16e>
   140004194:	48 8b 45 28          	mov    0x28(%rbp),%rax
   140004198:	8b 40 08             	mov    0x8(%rax),%eax
   14000419b:	25 c0 01 00 00       	and    $0x1c0,%eax
   1400041a0:	85 c0                	test   %eax,%eax
   1400041a2:	74 11                	je     1400041b5 <__pformat_emit_float+0x17f>
   1400041a4:	48 8b 45 28          	mov    0x28(%rbp),%rax
   1400041a8:	8b 40 0c             	mov    0xc(%rax),%eax
   1400041ab:	8d 50 ff             	lea    -0x1(%rax),%edx
   1400041ae:	48 8b 45 28          	mov    0x28(%rbp),%rax
   1400041b2:	89 50 0c             	mov    %edx,0xc(%rax)
   1400041b5:	48 8b 45 28          	mov    0x28(%rbp),%rax
   1400041b9:	8b 40 0c             	mov    0xc(%rax),%eax
   1400041bc:	85 c0                	test   %eax,%eax
   1400041be:	7e 38                	jle    1400041f8 <__pformat_emit_float+0x1c2>
   1400041c0:	48 8b 45 28          	mov    0x28(%rbp),%rax
   1400041c4:	8b 40 08             	mov    0x8(%rax),%eax
   1400041c7:	25 00 06 00 00       	and    $0x600,%eax
   1400041cc:	85 c0                	test   %eax,%eax
   1400041ce:	75 28                	jne    1400041f8 <__pformat_emit_float+0x1c2>
   1400041d0:	eb 11                	jmp    1400041e3 <__pformat_emit_float+0x1ad>
   1400041d2:	48 8b 45 28          	mov    0x28(%rbp),%rax
   1400041d6:	48 89 c2             	mov    %rax,%rdx
   1400041d9:	b9 20 00 00 00       	mov    $0x20,%ecx
   1400041de:	e8 ad ee ff ff       	call   140003090 <__pformat_putc>
   1400041e3:	48 8b 45 28          	mov    0x28(%rbp),%rax
   1400041e7:	8b 40 0c             	mov    0xc(%rax),%eax
   1400041ea:	8d 48 ff             	lea    -0x1(%rax),%ecx
   1400041ed:	48 8b 55 28          	mov    0x28(%rbp),%rdx
   1400041f1:	89 4a 0c             	mov    %ecx,0xc(%rdx)
   1400041f4:	85 c0                	test   %eax,%eax
   1400041f6:	7f da                	jg     1400041d2 <__pformat_emit_float+0x19c>
   1400041f8:	83 7d 10 00          	cmpl   $0x0,0x10(%rbp)
   1400041fc:	74 13                	je     140004211 <__pformat_emit_float+0x1db>
   1400041fe:	48 8b 45 28          	mov    0x28(%rbp),%rax
   140004202:	48 89 c2             	mov    %rax,%rdx
   140004205:	b9 2d 00 00 00       	mov    $0x2d,%ecx
   14000420a:	e8 81 ee ff ff       	call   140003090 <__pformat_putc>
   14000420f:	eb 42                	jmp    140004253 <__pformat_emit_float+0x21d>
   140004211:	48 8b 45 28          	mov    0x28(%rbp),%rax
   140004215:	8b 40 08             	mov    0x8(%rax),%eax
   140004218:	25 00 01 00 00       	and    $0x100,%eax
   14000421d:	85 c0                	test   %eax,%eax
   14000421f:	74 13                	je     140004234 <__pformat_emit_float+0x1fe>
   140004221:	48 8b 45 28          	mov    0x28(%rbp),%rax
   140004225:	48 89 c2             	mov    %rax,%rdx
   140004228:	b9 2b 00 00 00       	mov    $0x2b,%ecx
   14000422d:	e8 5e ee ff ff       	call   140003090 <__pformat_putc>
   140004232:	eb 1f                	jmp    140004253 <__pformat_emit_float+0x21d>
   140004234:	48 8b 45 28          	mov    0x28(%rbp),%rax
   140004238:	8b 40 08             	mov    0x8(%rax),%eax
   14000423b:	83 e0 40             	and    $0x40,%eax
   14000423e:	85 c0                	test   %eax,%eax
   140004240:	74 11                	je     140004253 <__pformat_emit_float+0x21d>
   140004242:	48 8b 45 28          	mov    0x28(%rbp),%rax
   140004246:	48 89 c2             	mov    %rax,%rdx
   140004249:	b9 20 00 00 00       	mov    $0x20,%ecx
   14000424e:	e8 3d ee ff ff       	call   140003090 <__pformat_putc>
   140004253:	48 8b 45 28          	mov    0x28(%rbp),%rax
   140004257:	8b 40 0c             	mov    0xc(%rax),%eax
   14000425a:	85 c0                	test   %eax,%eax
   14000425c:	7e 3b                	jle    140004299 <__pformat_emit_float+0x263>
   14000425e:	48 8b 45 28          	mov    0x28(%rbp),%rax
   140004262:	8b 40 08             	mov    0x8(%rax),%eax
   140004265:	25 00 06 00 00       	and    $0x600,%eax
   14000426a:	3d 00 02 00 00       	cmp    $0x200,%eax
   14000426f:	75 28                	jne    140004299 <__pformat_emit_float+0x263>
   140004271:	eb 11                	jmp    140004284 <__pformat_emit_float+0x24e>
   140004273:	48 8b 45 28          	mov    0x28(%rbp),%rax
   140004277:	48 89 c2             	mov    %rax,%rdx
   14000427a:	b9 30 00 00 00       	mov    $0x30,%ecx
   14000427f:	e8 0c ee ff ff       	call   140003090 <__pformat_putc>
   140004284:	48 8b 45 28          	mov    0x28(%rbp),%rax
   140004288:	8b 40 0c             	mov    0xc(%rax),%eax
   14000428b:	8d 48 ff             	lea    -0x1(%rax),%ecx
   14000428e:	48 8b 55 28          	mov    0x28(%rbp),%rdx
   140004292:	89 4a 0c             	mov    %ecx,0xc(%rdx)
   140004295:	85 c0                	test   %eax,%eax
   140004297:	7f da                	jg     140004273 <__pformat_emit_float+0x23d>
   140004299:	83 7d 20 00          	cmpl   $0x0,0x20(%rbp)
   14000429d:	0f 8e a4 00 00 00    	jle    140004347 <__pformat_emit_float+0x311>
   1400042a3:	48 8b 45 18          	mov    0x18(%rbp),%rax
   1400042a7:	0f b6 00             	movzbl (%rax),%eax
   1400042aa:	84 c0                	test   %al,%al
   1400042ac:	74 14                	je     1400042c2 <__pformat_emit_float+0x28c>
   1400042ae:	48 8b 45 18          	mov    0x18(%rbp),%rax
   1400042b2:	48 8d 50 01          	lea    0x1(%rax),%rdx
   1400042b6:	48 89 55 18          	mov    %rdx,0x18(%rbp)
   1400042ba:	0f b6 00             	movzbl (%rax),%eax
   1400042bd:	0f be c0             	movsbl %al,%eax
   1400042c0:	eb 05                	jmp    1400042c7 <__pformat_emit_float+0x291>
   1400042c2:	b8 30 00 00 00       	mov    $0x30,%eax
   1400042c7:	48 8b 55 28          	mov    0x28(%rbp),%rdx
   1400042cb:	89 c1                	mov    %eax,%ecx
   1400042cd:	e8 be ed ff ff       	call   140003090 <__pformat_putc>
   1400042d2:	83 6d 20 01          	subl   $0x1,0x20(%rbp)
   1400042d6:	83 7d 20 00          	cmpl   $0x0,0x20(%rbp)
   1400042da:	74 5f                	je     14000433b <__pformat_emit_float+0x305>
   1400042dc:	48 8b 45 28          	mov    0x28(%rbp),%rax
   1400042e0:	8b 40 08             	mov    0x8(%rax),%eax
   1400042e3:	25 00 10 00 00       	and    $0x1000,%eax
   1400042e8:	85 c0                	test   %eax,%eax
   1400042ea:	74 4f                	je     14000433b <__pformat_emit_float+0x305>
   1400042ec:	48 8b 45 28          	mov    0x28(%rbp),%rax
   1400042f0:	0f b7 40 20          	movzwl 0x20(%rax),%eax
   1400042f4:	66 85 c0             	test   %ax,%ax
   1400042f7:	74 42                	je     14000433b <__pformat_emit_float+0x305>
   1400042f9:	8b 55 20             	mov    0x20(%rbp),%edx
   1400042fc:	48 63 c2             	movslq %edx,%rax
   1400042ff:	48 69 c0 56 55 55 55 	imul   $0x55555556,%rax,%rax
   140004306:	48 c1 e8 20          	shr    $0x20,%rax
   14000430a:	89 d1                	mov    %edx,%ecx
   14000430c:	c1 f9 1f             	sar    $0x1f,%ecx
   14000430f:	29 c8                	sub    %ecx,%eax
   140004311:	89 c1                	mov    %eax,%ecx
   140004313:	01 c9                	add    %ecx,%ecx
   140004315:	01 c1                	add    %eax,%ecx
   140004317:	89 d0                	mov    %edx,%eax
   140004319:	29 c8                	sub    %ecx,%eax
   14000431b:	85 c0                	test   %eax,%eax
   14000431d:	75 1c                	jne    14000433b <__pformat_emit_float+0x305>
   14000431f:	48 8b 45 28          	mov    0x28(%rbp),%rax
   140004323:	48 83 c0 20          	add    $0x20,%rax
   140004327:	48 8b 55 28          	mov    0x28(%rbp),%rdx
   14000432b:	49 89 d0             	mov    %rdx,%r8
   14000432e:	ba 01 00 00 00       	mov    $0x1,%edx
   140004333:	48 89 c1             	mov    %rax,%rcx
   140004336:	e8 51 ef ff ff       	call   14000328c <__pformat_wputchars>
   14000433b:	83 7d 20 00          	cmpl   $0x0,0x20(%rbp)
   14000433f:	0f 8f 5e ff ff ff    	jg     1400042a3 <__pformat_emit_float+0x26d>
   140004345:	eb 11                	jmp    140004358 <__pformat_emit_float+0x322>
   140004347:	48 8b 45 28          	mov    0x28(%rbp),%rax
   14000434b:	48 89 c2             	mov    %rax,%rdx
   14000434e:	b9 30 00 00 00       	mov    $0x30,%ecx
   140004353:	e8 38 ed ff ff       	call   140003090 <__pformat_putc>
   140004358:	48 8b 45 28          	mov    0x28(%rbp),%rax
   14000435c:	8b 40 10             	mov    0x10(%rax),%eax
   14000435f:	85 c0                	test   %eax,%eax
   140004361:	7f 10                	jg     140004373 <__pformat_emit_float+0x33d>
   140004363:	48 8b 45 28          	mov    0x28(%rbp),%rax
   140004367:	8b 40 08             	mov    0x8(%rax),%eax
   14000436a:	25 00 08 00 00       	and    $0x800,%eax
   14000436f:	85 c0                	test   %eax,%eax
   140004371:	74 0c                	je     14000437f <__pformat_emit_float+0x349>
   140004373:	48 8b 45 28          	mov    0x28(%rbp),%rax
   140004377:	48 89 c1             	mov    %rax,%rcx
   14000437a:	e8 da f9 ff ff       	call   140003d59 <__pformat_emit_radix_point>
   14000437f:	83 7d 20 00          	cmpl   $0x0,0x20(%rbp)
   140004383:	79 5f                	jns    1400043e4 <__pformat_emit_float+0x3ae>
   140004385:	48 8b 45 28          	mov    0x28(%rbp),%rax
   140004389:	8b 50 10             	mov    0x10(%rax),%edx
   14000438c:	8b 45 20             	mov    0x20(%rbp),%eax
   14000438f:	01 c2                	add    %eax,%edx
   140004391:	48 8b 45 28          	mov    0x28(%rbp),%rax
   140004395:	89 50 10             	mov    %edx,0x10(%rax)
   140004398:	48 8b 45 28          	mov    0x28(%rbp),%rax
   14000439c:	48 89 c2             	mov    %rax,%rdx
   14000439f:	b9 30 00 00 00       	mov    $0x30,%ecx
   1400043a4:	e8 e7 ec ff ff       	call   140003090 <__pformat_putc>
   1400043a9:	83 45 20 01          	addl   $0x1,0x20(%rbp)
   1400043ad:	83 7d 20 00          	cmpl   $0x0,0x20(%rbp)
   1400043b1:	78 e5                	js     140004398 <__pformat_emit_float+0x362>
   1400043b3:	eb 2f                	jmp    1400043e4 <__pformat_emit_float+0x3ae>
   1400043b5:	48 8b 45 18          	mov    0x18(%rbp),%rax
   1400043b9:	0f b6 00             	movzbl (%rax),%eax
   1400043bc:	84 c0                	test   %al,%al
   1400043be:	74 14                	je     1400043d4 <__pformat_emit_float+0x39e>
   1400043c0:	48 8b 45 18          	mov    0x18(%rbp),%rax
   1400043c4:	48 8d 50 01          	lea    0x1(%rax),%rdx
   1400043c8:	48 89 55 18          	mov    %rdx,0x18(%rbp)
   1400043cc:	0f b6 00             	movzbl (%rax),%eax
   1400043cf:	0f be c0             	movsbl %al,%eax
   1400043d2:	eb 05                	jmp    1400043d9 <__pformat_emit_float+0x3a3>
   1400043d4:	b8 30 00 00 00       	mov    $0x30,%eax
   1400043d9:	48 8b 55 28          	mov    0x28(%rbp),%rdx
   1400043dd:	89 c1                	mov    %eax,%ecx
   1400043df:	e8 ac ec ff ff       	call   140003090 <__pformat_putc>
   1400043e4:	48 8b 45 28          	mov    0x28(%rbp),%rax
   1400043e8:	8b 40 10             	mov    0x10(%rax),%eax
   1400043eb:	8d 48 ff             	lea    -0x1(%rax),%ecx
   1400043ee:	48 8b 55 28          	mov    0x28(%rbp),%rdx
   1400043f2:	89 4a 10             	mov    %ecx,0x10(%rdx)
   1400043f5:	85 c0                	test   %eax,%eax
   1400043f7:	7f bc                	jg     1400043b5 <__pformat_emit_float+0x37f>
   1400043f9:	90                   	nop
   1400043fa:	90                   	nop
   1400043fb:	48 83 c4 30          	add    $0x30,%rsp
   1400043ff:	5d                   	pop    %rbp
   140004400:	c3                   	ret    

0000000140004401 <__pformat_emit_efloat>:
   140004401:	55                   	push   %rbp
   140004402:	48 89 e5             	mov    %rsp,%rbp
   140004405:	48 83 ec 50          	sub    $0x50,%rsp
   140004409:	89 4d 10             	mov    %ecx,0x10(%rbp)
   14000440c:	48 89 55 18          	mov    %rdx,0x18(%rbp)
   140004410:	44 89 45 20          	mov    %r8d,0x20(%rbp)
   140004414:	4c 89 4d 28          	mov    %r9,0x28(%rbp)
   140004418:	c7 45 fc 01 00 00 00 	movl   $0x1,-0x4(%rbp)
   14000441f:	83 6d 20 01          	subl   $0x1,0x20(%rbp)
   140004423:	8b 45 20             	mov    0x20(%rbp),%eax
   140004426:	48 98                	cltq   
   140004428:	48 89 45 e0          	mov    %rax,-0x20(%rbp)
   14000442c:	eb 04                	jmp    140004432 <__pformat_emit_efloat+0x31>
   14000442e:	83 45 fc 01          	addl   $0x1,-0x4(%rbp)
   140004432:	8b 45 20             	mov    0x20(%rbp),%eax
   140004435:	48 63 d0             	movslq %eax,%rdx
   140004438:	48 69 d2 67 66 66 66 	imul   $0x66666667,%rdx,%rdx
   14000443f:	48 c1 ea 20          	shr    $0x20,%rdx
   140004443:	c1 fa 02             	sar    $0x2,%edx
   140004446:	c1 f8 1f             	sar    $0x1f,%eax
   140004449:	89 c1                	mov    %eax,%ecx
   14000444b:	89 d0                	mov    %edx,%eax
   14000444d:	29 c8                	sub    %ecx,%eax
   14000444f:	89 45 20             	mov    %eax,0x20(%rbp)
   140004452:	83 7d 20 00          	cmpl   $0x0,0x20(%rbp)
   140004456:	75 d6                	jne    14000442e <__pformat_emit_efloat+0x2d>
   140004458:	48 8b 45 28          	mov    0x28(%rbp),%rax
   14000445c:	8b 40 2c             	mov    0x2c(%rax),%eax
   14000445f:	83 f8 ff             	cmp    $0xffffffff,%eax
   140004462:	75 0b                	jne    14000446f <__pformat_emit_efloat+0x6e>
   140004464:	48 8b 45 28          	mov    0x28(%rbp),%rax
   140004468:	c7 40 2c 02 00 00 00 	movl   $0x2,0x2c(%rax)
   14000446f:	48 8b 45 28          	mov    0x28(%rbp),%rax
   140004473:	8b 40 2c             	mov    0x2c(%rax),%eax
   140004476:	39 45 fc             	cmp    %eax,-0x4(%rbp)
   140004479:	7d 0a                	jge    140004485 <__pformat_emit_efloat+0x84>
   14000447b:	48 8b 45 28          	mov    0x28(%rbp),%rax
   14000447f:	8b 40 2c             	mov    0x2c(%rax),%eax
   140004482:	89 45 fc             	mov    %eax,-0x4(%rbp)
   140004485:	48 8b 45 28          	mov    0x28(%rbp),%rax
   140004489:	8b 40 0c             	mov    0xc(%rax),%eax
   14000448c:	83 45 fc 02          	addl   $0x2,-0x4(%rbp)
   140004490:	39 45 fc             	cmp    %eax,-0x4(%rbp)
   140004493:	7d 15                	jge    1400044aa <__pformat_emit_efloat+0xa9>
   140004495:	48 8b 45 28          	mov    0x28(%rbp),%rax
   140004499:	8b 40 0c             	mov    0xc(%rax),%eax
   14000449c:	2b 45 fc             	sub    -0x4(%rbp),%eax
   14000449f:	89 c2                	mov    %eax,%edx
   1400044a1:	48 8b 45 28          	mov    0x28(%rbp),%rax
   1400044a5:	89 50 0c             	mov    %edx,0xc(%rax)
   1400044a8:	eb 0b                	jmp    1400044b5 <__pformat_emit_efloat+0xb4>
   1400044aa:	48 8b 45 28          	mov    0x28(%rbp),%rax
   1400044ae:	c7 40 0c ff ff ff ff 	movl   $0xffffffff,0xc(%rax)
   1400044b5:	48 8b 55 28          	mov    0x28(%rbp),%rdx
   1400044b9:	48 8b 45 18          	mov    0x18(%rbp),%rax
   1400044bd:	49 89 d1             	mov    %rdx,%r9
   1400044c0:	41 b8 01 00 00 00    	mov    $0x1,%r8d
   1400044c6:	48 89 c2             	mov    %rax,%rdx
   1400044c9:	8b 4d 10             	mov    0x10(%rbp),%ecx
   1400044cc:	e8 65 fb ff ff       	call   140004036 <__pformat_emit_float>
   1400044d1:	48 8b 45 28          	mov    0x28(%rbp),%rax
   1400044d5:	8b 50 2c             	mov    0x2c(%rax),%edx
   1400044d8:	48 8b 45 28          	mov    0x28(%rbp),%rax
   1400044dc:	89 50 10             	mov    %edx,0x10(%rax)
   1400044df:	48 8b 45 28          	mov    0x28(%rbp),%rax
   1400044e3:	8b 40 08             	mov    0x8(%rax),%eax
   1400044e6:	0d c0 01 00 00       	or     $0x1c0,%eax
   1400044eb:	89 c2                	mov    %eax,%edx
   1400044ed:	48 8b 45 28          	mov    0x28(%rbp),%rax
   1400044f1:	89 50 08             	mov    %edx,0x8(%rax)
   1400044f4:	48 8b 45 28          	mov    0x28(%rbp),%rax
   1400044f8:	8b 40 08             	mov    0x8(%rax),%eax
   1400044fb:	83 e0 20             	and    $0x20,%eax
   1400044fe:	83 c8 45             	or     $0x45,%eax
   140004501:	89 c1                	mov    %eax,%ecx
   140004503:	48 8b 45 28          	mov    0x28(%rbp),%rax
   140004507:	48 89 c2             	mov    %rax,%rdx
   14000450a:	e8 81 eb ff ff       	call   140003090 <__pformat_putc>
   14000450f:	48 8b 45 28          	mov    0x28(%rbp),%rax
   140004513:	8b 50 0c             	mov    0xc(%rax),%edx
   140004516:	8b 45 fc             	mov    -0x4(%rbp),%eax
   140004519:	83 e8 01             	sub    $0x1,%eax
   14000451c:	01 c2                	add    %eax,%edx
   14000451e:	48 8b 45 28          	mov    0x28(%rbp),%rax
   140004522:	89 50 0c             	mov    %edx,0xc(%rax)
   140004525:	48 8b 45 e0          	mov    -0x20(%rbp),%rax
   140004529:	48 8b 55 e8          	mov    -0x18(%rbp),%rdx
   14000452d:	48 89 45 d0          	mov    %rax,-0x30(%rbp)
   140004531:	48 89 55 d8          	mov    %rdx,-0x28(%rbp)
   140004535:	48 8b 55 28          	mov    0x28(%rbp),%rdx
   140004539:	48 8d 45 d0          	lea    -0x30(%rbp),%rax
   14000453d:	48 89 c1             	mov    %rax,%rcx
   140004540:	e8 af ef ff ff       	call   1400034f4 <__pformat_int>
   140004545:	90                   	nop
   140004546:	48 83 c4 50          	add    $0x50,%rsp
   14000454a:	5d                   	pop    %rbp
   14000454b:	c3                   	ret    

000000014000454c <__pformat_float>:
   14000454c:	55                   	push   %rbp
   14000454d:	53                   	push   %rbx
   14000454e:	48 83 ec 58          	sub    $0x58,%rsp
   140004552:	48 8d 6c 24 50       	lea    0x50(%rsp),%rbp
   140004557:	48 89 cb             	mov    %rcx,%rbx
   14000455a:	db 2b                	fldt   (%rbx)
   14000455c:	db 7d e0             	fstpt  -0x20(%rbp)
   14000455f:	48 89 55 28          	mov    %rdx,0x28(%rbp)
   140004563:	48 8b 45 28          	mov    0x28(%rbp),%rax
   140004567:	8b 40 10             	mov    0x10(%rax),%eax
   14000456a:	85 c0                	test   %eax,%eax
   14000456c:	79 0b                	jns    140004579 <__pformat_float+0x2d>
   14000456e:	48 8b 45 28          	mov    0x28(%rbp),%rax
   140004572:	c7 40 10 06 00 00 00 	movl   $0x6,0x10(%rax)
   140004579:	48 8b 45 28          	mov    0x28(%rbp),%rax
   14000457d:	8b 50 10             	mov    0x10(%rax),%edx
   140004580:	db 6d e0             	fldt   -0x20(%rbp)
   140004583:	db 7d d0             	fstpt  -0x30(%rbp)
   140004586:	4c 8d 45 f4          	lea    -0xc(%rbp),%r8
   14000458a:	48 8d 4d f0          	lea    -0x10(%rbp),%rcx
   14000458e:	48 8d 45 d0          	lea    -0x30(%rbp),%rax
   140004592:	4d 89 c1             	mov    %r8,%r9
   140004595:	49 89 c8             	mov    %rcx,%r8
   140004598:	48 89 c1             	mov    %rax,%rcx
   14000459b:	e8 57 f7 ff ff       	call   140003cf7 <__pformat_fcvt>
   1400045a0:	48 89 45 f8          	mov    %rax,-0x8(%rbp)
   1400045a4:	8b 45 f0             	mov    -0x10(%rbp),%eax
   1400045a7:	3d 00 80 ff ff       	cmp    $0xffff8000,%eax
   1400045ac:	75 17                	jne    1400045c5 <__pformat_float+0x79>
   1400045ae:	8b 45 f4             	mov    -0xc(%rbp),%eax
   1400045b1:	48 8b 4d 28          	mov    0x28(%rbp),%rcx
   1400045b5:	48 8b 55 f8          	mov    -0x8(%rbp),%rdx
   1400045b9:	49 89 c8             	mov    %rcx,%r8
   1400045bc:	89 c1                	mov    %eax,%ecx
   1400045be:	e8 88 f9 ff ff       	call   140003f4b <__pformat_emit_inf_or_nan>
   1400045c3:	eb 43                	jmp    140004608 <__pformat_float+0xbc>
   1400045c5:	8b 4d f0             	mov    -0x10(%rbp),%ecx
   1400045c8:	8b 45 f4             	mov    -0xc(%rbp),%eax
   1400045cb:	4c 8b 45 28          	mov    0x28(%rbp),%r8
   1400045cf:	48 8b 55 f8          	mov    -0x8(%rbp),%rdx
   1400045d3:	4d 89 c1             	mov    %r8,%r9
   1400045d6:	41 89 c8             	mov    %ecx,%r8d
   1400045d9:	89 c1                	mov    %eax,%ecx
   1400045db:	e8 56 fa ff ff       	call   140004036 <__pformat_emit_float>
   1400045e0:	eb 11                	jmp    1400045f3 <__pformat_float+0xa7>
   1400045e2:	48 8b 45 28          	mov    0x28(%rbp),%rax
   1400045e6:	48 89 c2             	mov    %rax,%rdx
   1400045e9:	b9 20 00 00 00       	mov    $0x20,%ecx
   1400045ee:	e8 9d ea ff ff       	call   140003090 <__pformat_putc>
   1400045f3:	48 8b 45 28          	mov    0x28(%rbp),%rax
   1400045f7:	8b 40 0c             	mov    0xc(%rax),%eax
   1400045fa:	8d 48 ff             	lea    -0x1(%rax),%ecx
   1400045fd:	48 8b 55 28          	mov    0x28(%rbp),%rdx
   140004601:	89 4a 0c             	mov    %ecx,0xc(%rdx)
   140004604:	85 c0                	test   %eax,%eax
   140004606:	7f da                	jg     1400045e2 <__pformat_float+0x96>
   140004608:	48 8b 45 f8          	mov    -0x8(%rbp),%rax
   14000460c:	48 89 c1             	mov    %rax,%rcx
   14000460f:	e8 fb 12 00 00       	call   14000590f <__freedtoa>
   140004614:	90                   	nop
   140004615:	48 83 c4 58          	add    $0x58,%rsp
   140004619:	5b                   	pop    %rbx
   14000461a:	5d                   	pop    %rbp
   14000461b:	c3                   	ret    

000000014000461c <__pformat_efloat>:
   14000461c:	55                   	push   %rbp
   14000461d:	53                   	push   %rbx
   14000461e:	48 83 ec 58          	sub    $0x58,%rsp
   140004622:	48 8d 6c 24 50       	lea    0x50(%rsp),%rbp
   140004627:	48 89 cb             	mov    %rcx,%rbx
   14000462a:	db 2b                	fldt   (%rbx)
   14000462c:	db 7d e0             	fstpt  -0x20(%rbp)
   14000462f:	48 89 55 28          	mov    %rdx,0x28(%rbp)
   140004633:	48 8b 45 28          	mov    0x28(%rbp),%rax
   140004637:	8b 40 10             	mov    0x10(%rax),%eax
   14000463a:	85 c0                	test   %eax,%eax
   14000463c:	79 0b                	jns    140004649 <__pformat_efloat+0x2d>
   14000463e:	48 8b 45 28          	mov    0x28(%rbp),%rax
   140004642:	c7 40 10 06 00 00 00 	movl   $0x6,0x10(%rax)
   140004649:	48 8b 45 28          	mov    0x28(%rbp),%rax
